
uranus_config_loader.elf:     file format elf32-littleriscv


Disassembly of section .text:

10000000 <_ftext>:
10000000:	0b00006f          	j	100000b0 <crt_init>
10000004:	00000013          	nop
10000008:	00000013          	nop
1000000c:	00000013          	nop
10000010:	00000013          	nop
10000014:	00000013          	nop
10000018:	00000013          	nop
1000001c:	00000013          	nop

10000020 <trap_entry>:
10000020:	fe112e23          	sw	ra,-4(sp)
10000024:	fe512c23          	sw	t0,-8(sp)
10000028:	fe612a23          	sw	t1,-12(sp)
1000002c:	fe712823          	sw	t2,-16(sp)
10000030:	fea12623          	sw	a0,-20(sp)
10000034:	feb12423          	sw	a1,-24(sp)
10000038:	fec12223          	sw	a2,-28(sp)
1000003c:	fed12023          	sw	a3,-32(sp)
10000040:	fce12e23          	sw	a4,-36(sp)
10000044:	fcf12c23          	sw	a5,-40(sp)
10000048:	fd012a23          	sw	a6,-44(sp)
1000004c:	fd112823          	sw	a7,-48(sp)
10000050:	fdc12623          	sw	t3,-52(sp)
10000054:	fdd12423          	sw	t4,-56(sp)
10000058:	fde12223          	sw	t5,-60(sp)
1000005c:	fdf12023          	sw	t6,-64(sp)
10000060:	fc010113          	addi	sp,sp,-64
10000064:	114000ef          	jal	ra,10000178 <isr>
10000068:	03c12083          	lw	ra,60(sp)
1000006c:	03812283          	lw	t0,56(sp)
10000070:	03412303          	lw	t1,52(sp)
10000074:	03012383          	lw	t2,48(sp)
10000078:	02c12503          	lw	a0,44(sp)
1000007c:	02812583          	lw	a1,40(sp)
10000080:	02412603          	lw	a2,36(sp)
10000084:	02012683          	lw	a3,32(sp)
10000088:	01c12703          	lw	a4,28(sp)
1000008c:	01812783          	lw	a5,24(sp)
10000090:	01412803          	lw	a6,20(sp)
10000094:	01012883          	lw	a7,16(sp)
10000098:	00c12e03          	lw	t3,12(sp)
1000009c:	00812e83          	lw	t4,8(sp)
100000a0:	00412f03          	lw	t5,4(sp)
100000a4:	00012f83          	lw	t6,0(sp)
100000a8:	04010113          	addi	sp,sp,64
100000ac:	30200073          	mret

100000b0 <crt_init>:
100000b0:	f0000117          	auipc	sp,0xf0000
100000b4:	75010113          	addi	sp,sp,1872 # 800 <_fstack>
100000b8:	00000517          	auipc	a0,0x0
100000bc:	f6850513          	addi	a0,a0,-152 # 10000020 <trap_entry>
100000c0:	30551073          	csrw	mtvec,a0

100000c4 <data_init>:
100000c4:	00000513          	li	a0,0
100000c8:	10000593          	li	a1,256
100000cc:	00003617          	auipc	a2,0x3
100000d0:	b3460613          	addi	a2,a2,-1228 # 10002c00 <_fdata_rom>

100000d4 <data_loop>:
100000d4:	00b50c63          	beq	a0,a1,100000ec <bss_init>
100000d8:	00062683          	lw	a3,0(a2)
100000dc:	00d52023          	sw	a3,0(a0)
100000e0:	00450513          	addi	a0,a0,4
100000e4:	00460613          	addi	a2,a2,4
100000e8:	fedff06f          	j	100000d4 <data_loop>

100000ec <bss_init>:
100000ec:	10000513          	li	a0,256
100000f0:	40000593          	li	a1,1024

100000f4 <bss_loop>:
100000f4:	00b50863          	beq	a0,a1,10000104 <bss_done>
100000f8:	00052023          	sw	zero,0(a0)
100000fc:	00450513          	addi	a0,a0,4
10000100:	ff5ff06f          	j	100000f4 <bss_loop>

10000104 <bss_done>:
10000104:	00001537          	lui	a0,0x1
10000108:	88050513          	addi	a0,a0,-1920 # 880 <_fstack+0x80>
1000010c:	30451073          	csrw	mie,a0
10000110:	451000ef          	jal	ra,10000d60 <main>

10000114 <infinit_loop>:
10000114:	0000006f          	j	10000114 <infinit_loop>

10000118 <flush_cpu_icache>:
10000118:	ff010113          	addi	sp,sp,-16
1000011c:	00812623          	sw	s0,12(sp)
10000120:	01010413          	addi	s0,sp,16
10000124:	00000013          	nop
10000128:	00c12403          	lw	s0,12(sp)
1000012c:	01010113          	addi	sp,sp,16
10000130:	00008067          	ret

10000134 <flush_cpu_dcache>:
10000134:	ff010113          	addi	sp,sp,-16
10000138:	00812623          	sw	s0,12(sp)
1000013c:	01010413          	addi	s0,sp,16
10000140:	00000013          	nop
10000144:	00c12403          	lw	s0,12(sp)
10000148:	01010113          	addi	sp,sp,16
1000014c:	00008067          	ret

10000150 <irq_setmask>:
10000150:	fe010113          	addi	sp,sp,-32
10000154:	00812e23          	sw	s0,28(sp)
10000158:	02010413          	addi	s0,sp,32
1000015c:	fea42623          	sw	a0,-20(s0)
10000160:	fec42783          	lw	a5,-20(s0)
10000164:	bc079073          	csrw	0xbc0,a5
10000168:	00000013          	nop
1000016c:	01c12403          	lw	s0,28(sp)
10000170:	02010113          	addi	sp,sp,32
10000174:	00008067          	ret

10000178 <isr>:
10000178:	ff010113          	addi	sp,sp,-16
1000017c:	00112623          	sw	ra,12(sp)
10000180:	00812423          	sw	s0,8(sp)
10000184:	01010413          	addi	s0,sp,16
10000188:	00000513          	li	a0,0
1000018c:	fc5ff0ef          	jal	ra,10000150 <irq_setmask>
10000190:	f00057b7          	lui	a5,0xf0005
10000194:	01c78793          	addi	a5,a5,28 # f000501c <_fdata_rom+0xe000241c>
10000198:	0007a023          	sw	zero,0(a5)
1000019c:	f00057b7          	lui	a5,0xf0005
100001a0:	00c78793          	addi	a5,a5,12 # f000500c <_fdata_rom+0xe000240c>
100001a4:	00100713          	li	a4,1
100001a8:	00e7a023          	sw	a4,0(a5)
100001ac:	f00057b7          	lui	a5,0xf0005
100001b0:	01078793          	addi	a5,a5,16 # f0005010 <_fdata_rom+0xe0002410>
100001b4:	0007a783          	lw	a5,0(a5)
100001b8:	00079863          	bnez	a5,100001c8 <isr+0x50>
100001bc:	00100713          	li	a4,1
100001c0:	10e01023          	sh	a4,256(zero) # 100 <_edata>
100001c4:	0180006f          	j	100001dc <isr+0x64>
100001c8:	f00057b7          	lui	a5,0xf0005
100001cc:	01c78793          	addi	a5,a5,28 # f000501c <_fdata_rom+0xe000241c>
100001d0:	00100713          	li	a4,1
100001d4:	00e7a023          	sw	a4,0(a5)
100001d8:	00000013          	nop
100001dc:	00c12083          	lw	ra,12(sp)
100001e0:	00812403          	lw	s0,8(sp)
100001e4:	01010113          	addi	sp,sp,16
100001e8:	00008067          	ret

100001ec <flush_cpu_icache>:
100001ec:	ff010113          	addi	sp,sp,-16
100001f0:	00812623          	sw	s0,12(sp)
100001f4:	01010413          	addi	s0,sp,16
100001f8:	00000013          	nop
100001fc:	00c12403          	lw	s0,12(sp)
10000200:	01010113          	addi	sp,sp,16
10000204:	00008067          	ret

10000208 <flush_cpu_dcache>:
10000208:	ff010113          	addi	sp,sp,-16
1000020c:	00812623          	sw	s0,12(sp)
10000210:	01010413          	addi	s0,sp,16
10000214:	00000013          	nop
10000218:	00c12403          	lw	s0,12(sp)
1000021c:	01010113          	addi	sp,sp,16
10000220:	00008067          	ret

10000224 <load_scanchain>:
10000224:	fd010113          	addi	sp,sp,-48
10000228:	02112623          	sw	ra,44(sp)
1000022c:	02812423          	sw	s0,40(sp)
10000230:	03010413          	addi	s0,sp,48
10000234:	fca42e23          	sw	a0,-36(s0)
10000238:	fcb42c23          	sw	a1,-40(s0)
1000023c:	fcc42a23          	sw	a2,-44(s0)
10000240:	fcd42823          	sw	a3,-48(s0)
10000244:	fe042623          	sw	zero,-20(s0)
10000248:	0340006f          	j	1000027c <load_scanchain+0x58>
1000024c:	fd442703          	lw	a4,-44(s0)
10000250:	300007b7          	lui	a5,0x30000
10000254:	00f707b3          	add	a5,a4,a5
10000258:	0007a023          	sw	zero,0(a5) # 30000000 <_fdata_rom+0x1fffd400>
1000025c:	3001e7b7          	lui	a5,0x3001e
10000260:	fd042703          	lw	a4,-48(s0)
10000264:	00e7a023          	sw	a4,0(a5) # 3001e000 <_fdata_rom+0x2001b400>
10000268:	3001e7b7          	lui	a5,0x3001e
1000026c:	0007a023          	sw	zero,0(a5) # 3001e000 <_fdata_rom+0x2001b400>
10000270:	fec42783          	lw	a5,-20(s0)
10000274:	00178793          	addi	a5,a5,1
10000278:	fef42623          	sw	a5,-20(s0)
1000027c:	fdc42783          	lw	a5,-36(s0)
10000280:	00a78793          	addi	a5,a5,10
10000284:	fec42703          	lw	a4,-20(s0)
10000288:	fcf742e3          	blt	a4,a5,1000024c <load_scanchain+0x28>
1000028c:	fe042223          	sw	zero,-28(s0)
10000290:	fe042423          	sw	zero,-24(s0)
10000294:	0f80006f          	j	1000038c <load_scanchain+0x168>
10000298:	fe842783          	lw	a5,-24(s0)
1000029c:	00179793          	slli	a5,a5,0x1
100002a0:	fd842703          	lw	a4,-40(s0)
100002a4:	00f707b3          	add	a5,a4,a5
100002a8:	0007d683          	lhu	a3,0(a5)
100002ac:	fd442703          	lw	a4,-44(s0)
100002b0:	300007b7          	lui	a5,0x30000
100002b4:	00f707b3          	add	a5,a4,a5
100002b8:	00068713          	mv	a4,a3
100002bc:	00e7a023          	sw	a4,0(a5) # 30000000 <_fdata_rom+0x1fffd400>
100002c0:	3001e7b7          	lui	a5,0x3001e
100002c4:	fd042703          	lw	a4,-48(s0)
100002c8:	00e7a023          	sw	a4,0(a5) # 3001e000 <_fdata_rom+0x2001b400>
100002cc:	3001e7b7          	lui	a5,0x3001e
100002d0:	0007a023          	sw	zero,0(a5) # 3001e000 <_fdata_rom+0x2001b400>
100002d4:	fd442703          	lw	a4,-44(s0)
100002d8:	300007b7          	lui	a5,0x30000
100002dc:	00f707b3          	add	a5,a4,a5
100002e0:	0007a783          	lw	a5,0(a5) # 30000000 <_fdata_rom+0x1fffd400>
100002e4:	08078e63          	beqz	a5,10000380 <load_scanchain+0x15c>
100002e8:	00100593          	li	a1,1
100002ec:	fd042503          	lw	a0,-48(s0)
100002f0:	58c000ef          	jal	ra,1000087c <print_hex>
100002f4:	100037b7          	lui	a5,0x10003
100002f8:	b2478513          	addi	a0,a5,-1244 # 10002b24 <hnode_config_data+0x5d8>
100002fc:	604000ef          	jal	ra,10000900 <print>
10000300:	fd442703          	lw	a4,-44(s0)
10000304:	300007b7          	lui	a5,0x30000
10000308:	00f707b3          	add	a5,a4,a5
1000030c:	0007a783          	lw	a5,0(a5) # 30000000 <_fdata_rom+0x1fffd400>
10000310:	00200593          	li	a1,2
10000314:	00078513          	mv	a0,a5
10000318:	564000ef          	jal	ra,1000087c <print_hex>
1000031c:	100037b7          	lui	a5,0x10003
10000320:	b2c78513          	addi	a0,a5,-1236 # 10002b2c <hnode_config_data+0x5e0>
10000324:	5dc000ef          	jal	ra,10000900 <print>
10000328:	fe842783          	lw	a5,-24(s0)
1000032c:	00300593          	li	a1,3
10000330:	00078513          	mv	a0,a5
10000334:	548000ef          	jal	ra,1000087c <print_hex>
10000338:	100037b7          	lui	a5,0x10003
1000033c:	b3478513          	addi	a0,a5,-1228 # 10002b34 <hnode_config_data+0x5e8>
10000340:	5c0000ef          	jal	ra,10000900 <print>
10000344:	fdc42783          	lw	a5,-36(s0)
10000348:	00300593          	li	a1,3
1000034c:	00078513          	mv	a0,a5
10000350:	52c000ef          	jal	ra,1000087c <print_hex>
10000354:	fdc42783          	lw	a5,-36(s0)
10000358:	fff78793          	addi	a5,a5,-1
1000035c:	fe842703          	lw	a4,-24(s0)
10000360:	00f71863          	bne	a4,a5,10000370 <load_scanchain+0x14c>
10000364:	100037b7          	lui	a5,0x10003
10000368:	b3c78513          	addi	a0,a5,-1220 # 10002b3c <hnode_config_data+0x5f0>
1000036c:	594000ef          	jal	ra,10000900 <print>
10000370:	00a00513          	li	a0,10
10000374:	4a0000ef          	jal	ra,10000814 <putchar>
10000378:	00100793          	li	a5,1
1000037c:	fef42223          	sw	a5,-28(s0)
10000380:	fe842783          	lw	a5,-24(s0)
10000384:	00178793          	addi	a5,a5,1
10000388:	fef42423          	sw	a5,-24(s0)
1000038c:	fe842703          	lw	a4,-24(s0)
10000390:	fdc42783          	lw	a5,-36(s0)
10000394:	f0f742e3          	blt	a4,a5,10000298 <load_scanchain+0x74>
10000398:	00000013          	nop
1000039c:	02c12083          	lw	ra,44(sp)
100003a0:	02812403          	lw	s0,40(sp)
100003a4:	03010113          	addi	sp,sp,48
100003a8:	00008067          	ret

100003ac <test_scanchain>:
100003ac:	fd010113          	addi	sp,sp,-48
100003b0:	02112623          	sw	ra,44(sp)
100003b4:	02812423          	sw	s0,40(sp)
100003b8:	03010413          	addi	s0,sp,48
100003bc:	fca42e23          	sw	a0,-36(s0)
100003c0:	fcb42c23          	sw	a1,-40(s0)
100003c4:	fcc42a23          	sw	a2,-44(s0)
100003c8:	fcd42823          	sw	a3,-48(s0)
100003cc:	fe042623          	sw	zero,-20(s0)
100003d0:	1000006f          	j	100004d0 <test_scanchain+0x124>
100003d4:	fe042423          	sw	zero,-24(s0)
100003d8:	0340006f          	j	1000040c <test_scanchain+0x60>
100003dc:	fd842703          	lw	a4,-40(s0)
100003e0:	300007b7          	lui	a5,0x30000
100003e4:	00f707b3          	add	a5,a4,a5
100003e8:	0007a023          	sw	zero,0(a5) # 30000000 <_fdata_rom+0x1fffd400>
100003ec:	3001e7b7          	lui	a5,0x3001e
100003f0:	fd442703          	lw	a4,-44(s0)
100003f4:	00e7a023          	sw	a4,0(a5) # 3001e000 <_fdata_rom+0x2001b400>
100003f8:	3001e7b7          	lui	a5,0x3001e
100003fc:	0007a023          	sw	zero,0(a5) # 3001e000 <_fdata_rom+0x2001b400>
10000400:	fe842783          	lw	a5,-24(s0)
10000404:	00178793          	addi	a5,a5,1
10000408:	fef42423          	sw	a5,-24(s0)
1000040c:	fdc42783          	lw	a5,-36(s0)
10000410:	00a78793          	addi	a5,a5,10
10000414:	fe842703          	lw	a4,-24(s0)
10000418:	fcf742e3          	blt	a4,a5,100003dc <test_scanchain+0x30>
1000041c:	fe042223          	sw	zero,-28(s0)
10000420:	0980006f          	j	100004b8 <test_scanchain+0x10c>
10000424:	fd842703          	lw	a4,-40(s0)
10000428:	300007b7          	lui	a5,0x30000
1000042c:	00f707b3          	add	a5,a4,a5
10000430:	0007a783          	lw	a5,0(a5) # 30000000 <_fdata_rom+0x1fffd400>
10000434:	04078263          	beqz	a5,10000478 <test_scanchain+0xcc>
10000438:	fec42783          	lw	a5,-20(s0)
1000043c:	00100593          	li	a1,1
10000440:	00078513          	mv	a0,a5
10000444:	438000ef          	jal	ra,1000087c <print_hex>
10000448:	100037b7          	lui	a5,0x10003
1000044c:	b2478513          	addi	a0,a5,-1244 # 10002b24 <hnode_config_data+0x5d8>
10000450:	4b0000ef          	jal	ra,10000900 <print>
10000454:	fdc42703          	lw	a4,-36(s0)
10000458:	fe442783          	lw	a5,-28(s0)
1000045c:	40f707b3          	sub	a5,a4,a5
10000460:	00300593          	li	a1,3
10000464:	00078513          	mv	a0,a5
10000468:	414000ef          	jal	ra,1000087c <print_hex>
1000046c:	00a00513          	li	a0,10
10000470:	3a4000ef          	jal	ra,10000814 <putchar>
10000474:	0500006f          	j	100004c4 <test_scanchain+0x118>
10000478:	00100713          	li	a4,1
1000047c:	fec42783          	lw	a5,-20(s0)
10000480:	00f716b3          	sll	a3,a4,a5
10000484:	fd842703          	lw	a4,-40(s0)
10000488:	300007b7          	lui	a5,0x30000
1000048c:	00f707b3          	add	a5,a4,a5
10000490:	00068713          	mv	a4,a3
10000494:	00e7a023          	sw	a4,0(a5) # 30000000 <_fdata_rom+0x1fffd400>
10000498:	3001e7b7          	lui	a5,0x3001e
1000049c:	fd442703          	lw	a4,-44(s0)
100004a0:	00e7a023          	sw	a4,0(a5) # 3001e000 <_fdata_rom+0x2001b400>
100004a4:	3001e7b7          	lui	a5,0x3001e
100004a8:	0007a023          	sw	zero,0(a5) # 3001e000 <_fdata_rom+0x2001b400>
100004ac:	fe442783          	lw	a5,-28(s0)
100004b0:	00178793          	addi	a5,a5,1
100004b4:	fef42223          	sw	a5,-28(s0)
100004b8:	fe442703          	lw	a4,-28(s0)
100004bc:	fdc42783          	lw	a5,-36(s0)
100004c0:	f6f742e3          	blt	a4,a5,10000424 <test_scanchain+0x78>
100004c4:	fec42783          	lw	a5,-20(s0)
100004c8:	00178793          	addi	a5,a5,1
100004cc:	fef42623          	sw	a5,-20(s0)
100004d0:	fec42703          	lw	a4,-20(s0)
100004d4:	fd042783          	lw	a5,-48(s0)
100004d8:	eef74ee3          	blt	a4,a5,100003d4 <test_scanchain+0x28>
100004dc:	00000013          	nop
100004e0:	02c12083          	lw	ra,44(sp)
100004e4:	02812403          	lw	s0,40(sp)
100004e8:	03010113          	addi	sp,sp,48
100004ec:	00008067          	ret

100004f0 <configure_io>:
100004f0:	ff010113          	addi	sp,sp,-16
100004f4:	00812623          	sw	s0,12(sp)
100004f8:	01010413          	addi	s0,sp,16
100004fc:	260007b7          	lui	a5,0x26000
10000500:	02478793          	addi	a5,a5,36 # 26000024 <_fdata_rom+0x15ffd424>
10000504:	00700713          	li	a4,7
10000508:	00e7a023          	sw	a4,0(a5)
1000050c:	260007b7          	lui	a5,0x26000
10000510:	02878793          	addi	a5,a5,40 # 26000028 <_fdata_rom+0x15ffd428>
10000514:	00b00713          	li	a4,11
10000518:	00e7a023          	sw	a4,0(a5)
1000051c:	260007b7          	lui	a5,0x26000
10000520:	02c78793          	addi	a5,a5,44 # 2600002c <_fdata_rom+0x15ffd42c>
10000524:	00700713          	li	a4,7
10000528:	00e7a023          	sw	a4,0(a5)
1000052c:	260007b7          	lui	a5,0x26000
10000530:	03078793          	addi	a5,a5,48 # 26000030 <_fdata_rom+0x15ffd430>
10000534:	00700713          	li	a4,7
10000538:	00e7a023          	sw	a4,0(a5)
1000053c:	260007b7          	lui	a5,0x26000
10000540:	03478793          	addi	a5,a5,52 # 26000034 <_fdata_rom+0x15ffd434>
10000544:	00700713          	li	a4,7
10000548:	00e7a023          	sw	a4,0(a5)
1000054c:	260007b7          	lui	a5,0x26000
10000550:	03878793          	addi	a5,a5,56 # 26000038 <_fdata_rom+0x15ffd438>
10000554:	00a00713          	li	a4,10
10000558:	00e7a023          	sw	a4,0(a5)
1000055c:	260007b7          	lui	a5,0x26000
10000560:	03c78793          	addi	a5,a5,60 # 2600003c <_fdata_rom+0x15ffd43c>
10000564:	00b00713          	li	a4,11
10000568:	00e7a023          	sw	a4,0(a5)
1000056c:	260007b7          	lui	a5,0x26000
10000570:	04078793          	addi	a5,a5,64 # 26000040 <_fdata_rom+0x15ffd440>
10000574:	00a00713          	li	a4,10
10000578:	00e7a023          	sw	a4,0(a5)
1000057c:	260007b7          	lui	a5,0x26000
10000580:	04478793          	addi	a5,a5,68 # 26000044 <_fdata_rom+0x15ffd444>
10000584:	00a00713          	li	a4,10
10000588:	00e7a023          	sw	a4,0(a5)
1000058c:	260007b7          	lui	a5,0x26000
10000590:	04878793          	addi	a5,a5,72 # 26000048 <_fdata_rom+0x15ffd448>
10000594:	00a00713          	li	a4,10
10000598:	00e7a023          	sw	a4,0(a5)
1000059c:	260007b7          	lui	a5,0x26000
100005a0:	04c78793          	addi	a5,a5,76 # 2600004c <_fdata_rom+0x15ffd44c>
100005a4:	00a00713          	li	a4,10
100005a8:	00e7a023          	sw	a4,0(a5)
100005ac:	260007b7          	lui	a5,0x26000
100005b0:	05078793          	addi	a5,a5,80 # 26000050 <_fdata_rom+0x15ffd450>
100005b4:	00a00713          	li	a4,10
100005b8:	00e7a023          	sw	a4,0(a5)
100005bc:	260007b7          	lui	a5,0x26000
100005c0:	05478793          	addi	a5,a5,84 # 26000054 <_fdata_rom+0x15ffd454>
100005c4:	00a00713          	li	a4,10
100005c8:	00e7a023          	sw	a4,0(a5)
100005cc:	260007b7          	lui	a5,0x26000
100005d0:	05878793          	addi	a5,a5,88 # 26000058 <_fdata_rom+0x15ffd458>
100005d4:	00a00713          	li	a4,10
100005d8:	00e7a023          	sw	a4,0(a5)
100005dc:	260007b7          	lui	a5,0x26000
100005e0:	05c78793          	addi	a5,a5,92 # 2600005c <_fdata_rom+0x15ffd45c>
100005e4:	00a00713          	li	a4,10
100005e8:	00e7a023          	sw	a4,0(a5)
100005ec:	260007b7          	lui	a5,0x26000
100005f0:	06078793          	addi	a5,a5,96 # 26000060 <_fdata_rom+0x15ffd460>
100005f4:	00b00713          	li	a4,11
100005f8:	00e7a023          	sw	a4,0(a5)
100005fc:	260007b7          	lui	a5,0x26000
10000600:	06478793          	addi	a5,a5,100 # 26000064 <_fdata_rom+0x15ffd464>
10000604:	00b00713          	li	a4,11
10000608:	00e7a023          	sw	a4,0(a5)
1000060c:	260007b7          	lui	a5,0x26000
10000610:	06878793          	addi	a5,a5,104 # 26000068 <_fdata_rom+0x15ffd468>
10000614:	00b00713          	li	a4,11
10000618:	00e7a023          	sw	a4,0(a5)
1000061c:	260007b7          	lui	a5,0x26000
10000620:	06c78793          	addi	a5,a5,108 # 2600006c <_fdata_rom+0x15ffd46c>
10000624:	00b00713          	li	a4,11
10000628:	00e7a023          	sw	a4,0(a5)
1000062c:	260007b7          	lui	a5,0x26000
10000630:	07078793          	addi	a5,a5,112 # 26000070 <_fdata_rom+0x15ffd470>
10000634:	00b00713          	li	a4,11
10000638:	00e7a023          	sw	a4,0(a5)
1000063c:	260007b7          	lui	a5,0x26000
10000640:	07478793          	addi	a5,a5,116 # 26000074 <_fdata_rom+0x15ffd474>
10000644:	00b00713          	li	a4,11
10000648:	00e7a023          	sw	a4,0(a5)
1000064c:	260007b7          	lui	a5,0x26000
10000650:	07878793          	addi	a5,a5,120 # 26000078 <_fdata_rom+0x15ffd478>
10000654:	00b00713          	li	a4,11
10000658:	00e7a023          	sw	a4,0(a5)
1000065c:	260007b7          	lui	a5,0x26000
10000660:	07c78793          	addi	a5,a5,124 # 2600007c <_fdata_rom+0x15ffd47c>
10000664:	00b00713          	li	a4,11
10000668:	00e7a023          	sw	a4,0(a5)
1000066c:	260007b7          	lui	a5,0x26000
10000670:	08078793          	addi	a5,a5,128 # 26000080 <_fdata_rom+0x15ffd480>
10000674:	00b00713          	li	a4,11
10000678:	00e7a023          	sw	a4,0(a5)
1000067c:	260007b7          	lui	a5,0x26000
10000680:	08478793          	addi	a5,a5,132 # 26000084 <_fdata_rom+0x15ffd484>
10000684:	00b00713          	li	a4,11
10000688:	00e7a023          	sw	a4,0(a5)
1000068c:	260007b7          	lui	a5,0x26000
10000690:	08878793          	addi	a5,a5,136 # 26000088 <_fdata_rom+0x15ffd488>
10000694:	00b00713          	li	a4,11
10000698:	00e7a023          	sw	a4,0(a5)
1000069c:	260007b7          	lui	a5,0x26000
100006a0:	08c78793          	addi	a5,a5,140 # 2600008c <_fdata_rom+0x15ffd48c>
100006a4:	00b00713          	li	a4,11
100006a8:	00e7a023          	sw	a4,0(a5)
100006ac:	260007b7          	lui	a5,0x26000
100006b0:	09078793          	addi	a5,a5,144 # 26000090 <_fdata_rom+0x15ffd490>
100006b4:	00b00713          	li	a4,11
100006b8:	00e7a023          	sw	a4,0(a5)
100006bc:	260007b7          	lui	a5,0x26000
100006c0:	09478793          	addi	a5,a5,148 # 26000094 <_fdata_rom+0x15ffd494>
100006c4:	00b00713          	li	a4,11
100006c8:	00e7a023          	sw	a4,0(a5)
100006cc:	260007b7          	lui	a5,0x26000
100006d0:	09878793          	addi	a5,a5,152 # 26000098 <_fdata_rom+0x15ffd498>
100006d4:	00b00713          	li	a4,11
100006d8:	00e7a023          	sw	a4,0(a5)
100006dc:	260007b7          	lui	a5,0x26000
100006e0:	09c78793          	addi	a5,a5,156 # 2600009c <_fdata_rom+0x15ffd49c>
100006e4:	00b00713          	li	a4,11
100006e8:	00e7a023          	sw	a4,0(a5)
100006ec:	260007b7          	lui	a5,0x26000
100006f0:	0a078793          	addi	a5,a5,160 # 260000a0 <_fdata_rom+0x15ffd4a0>
100006f4:	00b00713          	li	a4,11
100006f8:	00e7a023          	sw	a4,0(a5)
100006fc:	260007b7          	lui	a5,0x26000
10000700:	0a478793          	addi	a5,a5,164 # 260000a4 <_fdata_rom+0x15ffd4a4>
10000704:	00b00713          	li	a4,11
10000708:	00e7a023          	sw	a4,0(a5)
1000070c:	260007b7          	lui	a5,0x26000
10000710:	0a878793          	addi	a5,a5,168 # 260000a8 <_fdata_rom+0x15ffd4a8>
10000714:	00b00713          	li	a4,11
10000718:	00e7a023          	sw	a4,0(a5)
1000071c:	260007b7          	lui	a5,0x26000
10000720:	0ac78793          	addi	a5,a5,172 # 260000ac <_fdata_rom+0x15ffd4ac>
10000724:	00b00713          	li	a4,11
10000728:	00e7a023          	sw	a4,0(a5)
1000072c:	260007b7          	lui	a5,0x26000
10000730:	0b078793          	addi	a5,a5,176 # 260000b0 <_fdata_rom+0x15ffd4b0>
10000734:	00b00713          	li	a4,11
10000738:	00e7a023          	sw	a4,0(a5)
1000073c:	260007b7          	lui	a5,0x26000
10000740:	0b478793          	addi	a5,a5,180 # 260000b4 <_fdata_rom+0x15ffd4b4>
10000744:	00b00713          	li	a4,11
10000748:	00e7a023          	sw	a4,0(a5)
1000074c:	260007b7          	lui	a5,0x26000
10000750:	0b878793          	addi	a5,a5,184 # 260000b8 <_fdata_rom+0x15ffd4b8>
10000754:	00b00713          	li	a4,11
10000758:	00e7a023          	sw	a4,0(a5)
1000075c:	260007b7          	lui	a5,0x26000
10000760:	00100713          	li	a4,1
10000764:	00e7a023          	sw	a4,0(a5) # 26000000 <_fdata_rom+0x15ffd400>
10000768:	00000013          	nop
1000076c:	260007b7          	lui	a5,0x26000
10000770:	0007a703          	lw	a4,0(a5) # 26000000 <_fdata_rom+0x15ffd400>
10000774:	00100793          	li	a5,1
10000778:	fef70ae3          	beq	a4,a5,1000076c <configure_io+0x27c>
1000077c:	00000013          	nop
10000780:	00c12403          	lw	s0,12(sp)
10000784:	01010113          	addi	sp,sp,16
10000788:	00008067          	ret

1000078c <delay>:
1000078c:	fe010113          	addi	sp,sp,-32
10000790:	00812e23          	sw	s0,28(sp)
10000794:	02010413          	addi	s0,sp,32
10000798:	fea42623          	sw	a0,-20(s0)
1000079c:	fec42783          	lw	a5,-20(s0)
100007a0:	06078263          	beqz	a5,10000804 <delay+0x78>
100007a4:	f00057b7          	lui	a5,0xf0005
100007a8:	00878793          	addi	a5,a5,8 # f0005008 <_fdata_rom+0xe0002408>
100007ac:	0007a023          	sw	zero,0(a5)
100007b0:	f00057b7          	lui	a5,0xf0005
100007b4:	fec42703          	lw	a4,-20(s0)
100007b8:	00e7a023          	sw	a4,0(a5) # f0005000 <_fdata_rom+0xe0002400>
100007bc:	f00057b7          	lui	a5,0xf0005
100007c0:	00878793          	addi	a5,a5,8 # f0005008 <_fdata_rom+0xe0002408>
100007c4:	00100713          	li	a4,1
100007c8:	00e7a023          	sw	a4,0(a5)
100007cc:	f00057b7          	lui	a5,0xf0005
100007d0:	00c78793          	addi	a5,a5,12 # f000500c <_fdata_rom+0xe000240c>
100007d4:	00100713          	li	a4,1
100007d8:	00e7a023          	sw	a4,0(a5)
100007dc:	0140006f          	j	100007f0 <delay+0x64>
100007e0:	f00057b7          	lui	a5,0xf0005
100007e4:	00c78793          	addi	a5,a5,12 # f000500c <_fdata_rom+0xe000240c>
100007e8:	00100713          	li	a4,1
100007ec:	00e7a023          	sw	a4,0(a5)
100007f0:	f00057b7          	lui	a5,0xf0005
100007f4:	01078793          	addi	a5,a5,16 # f0005010 <_fdata_rom+0xe0002410>
100007f8:	0007a783          	lw	a5,0(a5)
100007fc:	fe0792e3          	bnez	a5,100007e0 <delay+0x54>
10000800:	0080006f          	j	10000808 <delay+0x7c>
10000804:	00000013          	nop
10000808:	01c12403          	lw	s0,28(sp)
1000080c:	02010113          	addi	sp,sp,32
10000810:	00008067          	ret

10000814 <putchar>:
10000814:	fe010113          	addi	sp,sp,-32
10000818:	00112e23          	sw	ra,28(sp)
1000081c:	00812c23          	sw	s0,24(sp)
10000820:	02010413          	addi	s0,sp,32
10000824:	00050793          	mv	a5,a0
10000828:	fef407a3          	sb	a5,-17(s0)
1000082c:	fef44703          	lbu	a4,-17(s0)
10000830:	00a00793          	li	a5,10
10000834:	00f71663          	bne	a4,a5,10000840 <putchar+0x2c>
10000838:	00d00513          	li	a0,13
1000083c:	fd9ff0ef          	jal	ra,10000814 <putchar>
10000840:	00000013          	nop
10000844:	f00067b7          	lui	a5,0xf0006
10000848:	80478793          	addi	a5,a5,-2044 # f0005804 <_fdata_rom+0xe0002c04>
1000084c:	0007a703          	lw	a4,0(a5)
10000850:	00100793          	li	a5,1
10000854:	fef708e3          	beq	a4,a5,10000844 <putchar+0x30>
10000858:	f00067b7          	lui	a5,0xf0006
1000085c:	80078793          	addi	a5,a5,-2048 # f0005800 <_fdata_rom+0xe0002c00>
10000860:	fef44703          	lbu	a4,-17(s0)
10000864:	00e7a023          	sw	a4,0(a5)
10000868:	00000013          	nop
1000086c:	01c12083          	lw	ra,28(sp)
10000870:	01812403          	lw	s0,24(sp)
10000874:	02010113          	addi	sp,sp,32
10000878:	00008067          	ret

1000087c <print_hex>:
1000087c:	fd010113          	addi	sp,sp,-48
10000880:	02112623          	sw	ra,44(sp)
10000884:	02812423          	sw	s0,40(sp)
10000888:	03010413          	addi	s0,sp,48
1000088c:	fca42e23          	sw	a0,-36(s0)
10000890:	fcb42c23          	sw	a1,-40(s0)
10000894:	fd842783          	lw	a5,-40(s0)
10000898:	fff78793          	addi	a5,a5,-1
1000089c:	fef42623          	sw	a5,-20(s0)
100008a0:	0440006f          	j	100008e4 <print_hex+0x68>
100008a4:	fec42783          	lw	a5,-20(s0)
100008a8:	00279793          	slli	a5,a5,0x2
100008ac:	fdc42703          	lw	a4,-36(s0)
100008b0:	00f757b3          	srl	a5,a4,a5
100008b4:	00f7f713          	andi	a4,a5,15
100008b8:	100037b7          	lui	a5,0x10003
100008bc:	b4478793          	addi	a5,a5,-1212 # 10002b44 <hnode_config_data+0x5f8>
100008c0:	00f707b3          	add	a5,a4,a5
100008c4:	0007c783          	lbu	a5,0(a5)
100008c8:	fef405a3          	sb	a5,-21(s0)
100008cc:	feb44783          	lbu	a5,-21(s0)
100008d0:	00078513          	mv	a0,a5
100008d4:	f41ff0ef          	jal	ra,10000814 <putchar>
100008d8:	fec42783          	lw	a5,-20(s0)
100008dc:	fff78793          	addi	a5,a5,-1
100008e0:	fef42623          	sw	a5,-20(s0)
100008e4:	fec42783          	lw	a5,-20(s0)
100008e8:	fa07dee3          	bgez	a5,100008a4 <print_hex+0x28>
100008ec:	00000013          	nop
100008f0:	02c12083          	lw	ra,44(sp)
100008f4:	02812403          	lw	s0,40(sp)
100008f8:	03010113          	addi	sp,sp,48
100008fc:	00008067          	ret

10000900 <print>:
10000900:	fe010113          	addi	sp,sp,-32
10000904:	00112e23          	sw	ra,28(sp)
10000908:	00812c23          	sw	s0,24(sp)
1000090c:	02010413          	addi	s0,sp,32
10000910:	fea42623          	sw	a0,-20(s0)
10000914:	01c0006f          	j	10000930 <print+0x30>
10000918:	fec42783          	lw	a5,-20(s0)
1000091c:	00178713          	addi	a4,a5,1
10000920:	fee42623          	sw	a4,-20(s0)
10000924:	0007c783          	lbu	a5,0(a5)
10000928:	00078513          	mv	a0,a5
1000092c:	ee9ff0ef          	jal	ra,10000814 <putchar>
10000930:	fec42783          	lw	a5,-20(s0)
10000934:	0007c783          	lbu	a5,0(a5)
10000938:	fe0790e3          	bnez	a5,10000918 <print+0x18>
1000093c:	00000013          	nop
10000940:	01c12083          	lw	ra,28(sp)
10000944:	01812403          	lw	s0,24(sp)
10000948:	02010113          	addi	sp,sp,32
1000094c:	00008067          	ret

10000950 <memcpy>:
10000950:	fd010113          	addi	sp,sp,-48
10000954:	02812623          	sw	s0,44(sp)
10000958:	03010413          	addi	s0,sp,48
1000095c:	fca42e23          	sw	a0,-36(s0)
10000960:	fcb42c23          	sw	a1,-40(s0)
10000964:	fcc42a23          	sw	a2,-44(s0)
10000968:	fdc42783          	lw	a5,-36(s0)
1000096c:	fef42423          	sw	a5,-24(s0)
10000970:	fd842783          	lw	a5,-40(s0)
10000974:	fef42223          	sw	a5,-28(s0)
10000978:	fe042623          	sw	zero,-20(s0)
1000097c:	0300006f          	j	100009ac <memcpy+0x5c>
10000980:	fec42783          	lw	a5,-20(s0)
10000984:	fe442703          	lw	a4,-28(s0)
10000988:	00f70733          	add	a4,a4,a5
1000098c:	fec42783          	lw	a5,-20(s0)
10000990:	fe842683          	lw	a3,-24(s0)
10000994:	00f687b3          	add	a5,a3,a5
10000998:	00074703          	lbu	a4,0(a4)
1000099c:	00e78023          	sb	a4,0(a5)
100009a0:	fec42783          	lw	a5,-20(s0)
100009a4:	00178793          	addi	a5,a5,1
100009a8:	fef42623          	sw	a5,-20(s0)
100009ac:	fec42703          	lw	a4,-20(s0)
100009b0:	fd442783          	lw	a5,-44(s0)
100009b4:	fcf746e3          	blt	a4,a5,10000980 <memcpy+0x30>
100009b8:	fdc42783          	lw	a5,-36(s0)
100009bc:	00078513          	mv	a0,a5
100009c0:	02c12403          	lw	s0,44(sp)
100009c4:	03010113          	addi	sp,sp,48
100009c8:	00008067          	ret

100009cc <mangle_data>:
100009cc:	fc010113          	addi	sp,sp,-64
100009d0:	02112e23          	sw	ra,60(sp)
100009d4:	02812c23          	sw	s0,56(sp)
100009d8:	04010413          	addi	s0,sp,64
100009dc:	fca42623          	sw	a0,-52(s0)
100009e0:	fcb42423          	sw	a1,-56(s0)
100009e4:	12e00713          	li	a4,302
100009e8:	12e00793          	li	a5,302
100009ec:	00f70c63          	beq	a4,a5,10000a04 <mangle_data+0x38>
100009f0:	100037b7          	lui	a5,0x10003
100009f4:	b5878513          	addi	a0,a5,-1192 # 10002b58 <hnode_config_data+0x60c>
100009f8:	f09ff0ef          	jal	ra,10000900 <print>
100009fc:	00100793          	li	a5,1
10000a00:	2b40006f          	j	10000cb4 <mangle_data+0x2e8>
10000a04:	fcc42703          	lw	a4,-52(s0)
10000a08:	fc842783          	lw	a5,-56(s0)
10000a0c:	04f70263          	beq	a4,a5,10000a50 <mangle_data+0x84>
10000a10:	100027b7          	lui	a5,0x10002
10000a14:	fcc42703          	lw	a4,-52(s0)
10000a18:	00171713          	slli	a4,a4,0x1
10000a1c:	2f078793          	addi	a5,a5,752 # 100022f0 <vnode_config_data>
10000a20:	00f707b3          	add	a5,a4,a5
10000a24:	0007d703          	lhu	a4,0(a5)
10000a28:	07f00793          	li	a5,127
10000a2c:	02f71263          	bne	a4,a5,10000a50 <mangle_data+0x84>
10000a30:	100027b7          	lui	a5,0x10002
10000a34:	fc842703          	lw	a4,-56(s0)
10000a38:	00171713          	slli	a4,a4,0x1
10000a3c:	2f078793          	addi	a5,a5,752 # 100022f0 <vnode_config_data>
10000a40:	00f707b3          	add	a5,a4,a5
10000a44:	0007d703          	lhu	a4,0(a5)
10000a48:	07f00793          	li	a5,127
10000a4c:	00f70663          	beq	a4,a5,10000a58 <mangle_data+0x8c>
10000a50:	00100793          	li	a5,1
10000a54:	2600006f          	j	10000cb4 <mangle_data+0x2e8>
10000a58:	fcc42703          	lw	a4,-52(s0)
10000a5c:	fc842783          	lw	a5,-56(s0)
10000a60:	00f75c63          	ble	a5,a4,10000a78 <mangle_data+0xac>
10000a64:	fcc42783          	lw	a5,-52(s0)
10000a68:	fef42623          	sw	a5,-20(s0)
10000a6c:	fc842783          	lw	a5,-56(s0)
10000a70:	fef42423          	sw	a5,-24(s0)
10000a74:	0140006f          	j	10000a88 <mangle_data+0xbc>
10000a78:	fc842783          	lw	a5,-56(s0)
10000a7c:	fef42623          	sw	a5,-20(s0)
10000a80:	fcc42783          	lw	a5,-52(s0)
10000a84:	fef42423          	sw	a5,-24(s0)
10000a88:	fe842703          	lw	a4,-24(s0)
10000a8c:	fec42783          	lw	a5,-20(s0)
10000a90:	40f707b3          	sub	a5,a4,a5
10000a94:	fcf42c23          	sw	a5,-40(s0)
10000a98:	00100793          	li	a5,1
10000a9c:	fef42223          	sw	a5,-28(s0)
10000aa0:	fec42783          	lw	a5,-20(s0)
10000aa4:	fef42023          	sw	a5,-32(s0)
10000aa8:	0380006f          	j	10000ae0 <mangle_data+0x114>
10000aac:	100027b7          	lui	a5,0x10002
10000ab0:	fe042703          	lw	a4,-32(s0)
10000ab4:	00171713          	slli	a4,a4,0x1
10000ab8:	2f078793          	addi	a5,a5,752 # 100022f0 <vnode_config_data>
10000abc:	00f707b3          	add	a5,a4,a5
10000ac0:	0007d703          	lhu	a4,0(a5)
10000ac4:	07f00793          	li	a5,127
10000ac8:	00f70663          	beq	a4,a5,10000ad4 <mangle_data+0x108>
10000acc:	fe042223          	sw	zero,-28(s0)
10000ad0:	01c0006f          	j	10000aec <mangle_data+0x120>
10000ad4:	fe042783          	lw	a5,-32(s0)
10000ad8:	00178793          	addi	a5,a5,1
10000adc:	fef42023          	sw	a5,-32(s0)
10000ae0:	fe042703          	lw	a4,-32(s0)
10000ae4:	fe842783          	lw	a5,-24(s0)
10000ae8:	fcf742e3          	blt	a4,a5,10000aac <mangle_data+0xe0>
10000aec:	fe442783          	lw	a5,-28(s0)
10000af0:	00078663          	beqz	a5,10000afc <mangle_data+0x130>
10000af4:	00100793          	li	a5,1
10000af8:	1bc0006f          	j	10000cb4 <mangle_data+0x2e8>
10000afc:	fc042e23          	sw	zero,-36(s0)
10000b00:	0240006f          	j	10000b24 <mangle_data+0x158>
10000b04:	fdc42703          	lw	a4,-36(s0)
10000b08:	00171713          	slli	a4,a4,0x1
10000b0c:	10400793          	li	a5,260
10000b10:	00f707b3          	add	a5,a4,a5
10000b14:	00079023          	sh	zero,0(a5)
10000b18:	fdc42783          	lw	a5,-36(s0)
10000b1c:	00178793          	addi	a5,a5,1
10000b20:	fcf42e23          	sw	a5,-36(s0)
10000b24:	fdc42703          	lw	a4,-36(s0)
10000b28:	12d00793          	li	a5,301
10000b2c:	fce7dce3          	ble	a4,a5,10000b04 <mangle_data+0x138>
10000b30:	fcc42703          	lw	a4,-52(s0)
10000b34:	fc842783          	lw	a5,-56(s0)
10000b38:	0cf75063          	ble	a5,a4,10000bf8 <mangle_data+0x22c>
10000b3c:	fcc42783          	lw	a5,-52(s0)
10000b40:	00179793          	slli	a5,a5,0x1
10000b44:	00078613          	mv	a2,a5
10000b48:	100027b7          	lui	a5,0x10002
10000b4c:	2f078593          	addi	a1,a5,752 # 100022f0 <vnode_config_data>
10000b50:	10400513          	li	a0,260
10000b54:	dfdff0ef          	jal	ra,10000950 <memcpy>
10000b58:	fcc42783          	lw	a5,-52(s0)
10000b5c:	00179713          	slli	a4,a5,0x1
10000b60:	10400793          	li	a5,260
10000b64:	00f706b3          	add	a3,a4,a5
10000b68:	fcc42783          	lw	a5,-52(s0)
10000b6c:	00178793          	addi	a5,a5,1
10000b70:	00179713          	slli	a4,a5,0x1
10000b74:	100027b7          	lui	a5,0x10002
10000b78:	2f078793          	addi	a5,a5,752 # 100022f0 <vnode_config_data>
10000b7c:	00f70733          	add	a4,a4,a5
10000b80:	fd842783          	lw	a5,-40(s0)
10000b84:	00179793          	slli	a5,a5,0x1
10000b88:	00078613          	mv	a2,a5
10000b8c:	00070593          	mv	a1,a4
10000b90:	00068513          	mv	a0,a3
10000b94:	dbdff0ef          	jal	ra,10000950 <memcpy>
10000b98:	fc842783          	lw	a5,-56(s0)
10000b9c:	fff78713          	addi	a4,a5,-1
10000ba0:	00171713          	slli	a4,a4,0x1
10000ba4:	10400793          	li	a5,260
10000ba8:	00f707b3          	add	a5,a4,a5
10000bac:	07f00713          	li	a4,127
10000bb0:	00e79023          	sh	a4,0(a5)
10000bb4:	fc842783          	lw	a5,-56(s0)
10000bb8:	00179713          	slli	a4,a5,0x1
10000bbc:	10400793          	li	a5,260
10000bc0:	00f706b3          	add	a3,a4,a5
10000bc4:	fc842783          	lw	a5,-56(s0)
10000bc8:	00179713          	slli	a4,a5,0x1
10000bcc:	100027b7          	lui	a5,0x10002
10000bd0:	2f078793          	addi	a5,a5,752 # 100022f0 <vnode_config_data>
10000bd4:	00f705b3          	add	a1,a4,a5
10000bd8:	12e00713          	li	a4,302
10000bdc:	fc842783          	lw	a5,-56(s0)
10000be0:	40f707b3          	sub	a5,a4,a5
10000be4:	00179793          	slli	a5,a5,0x1
10000be8:	00078613          	mv	a2,a5
10000bec:	00068513          	mv	a0,a3
10000bf0:	d61ff0ef          	jal	ra,10000950 <memcpy>
10000bf4:	0bc0006f          	j	10000cb0 <mangle_data+0x2e4>
10000bf8:	fc842783          	lw	a5,-56(s0)
10000bfc:	00179793          	slli	a5,a5,0x1
10000c00:	00078613          	mv	a2,a5
10000c04:	100027b7          	lui	a5,0x10002
10000c08:	2f078593          	addi	a1,a5,752 # 100022f0 <vnode_config_data>
10000c0c:	10400513          	li	a0,260
10000c10:	d41ff0ef          	jal	ra,10000950 <memcpy>
10000c14:	fc842703          	lw	a4,-56(s0)
10000c18:	00171713          	slli	a4,a4,0x1
10000c1c:	10400793          	li	a5,260
10000c20:	00f707b3          	add	a5,a4,a5
10000c24:	07f00713          	li	a4,127
10000c28:	00e79023          	sh	a4,0(a5)
10000c2c:	fc842783          	lw	a5,-56(s0)
10000c30:	00178793          	addi	a5,a5,1
10000c34:	00179713          	slli	a4,a5,0x1
10000c38:	10400793          	li	a5,260
10000c3c:	00f706b3          	add	a3,a4,a5
10000c40:	fc842783          	lw	a5,-56(s0)
10000c44:	00179713          	slli	a4,a5,0x1
10000c48:	100027b7          	lui	a5,0x10002
10000c4c:	2f078793          	addi	a5,a5,752 # 100022f0 <vnode_config_data>
10000c50:	00f70733          	add	a4,a4,a5
10000c54:	fd842783          	lw	a5,-40(s0)
10000c58:	00179793          	slli	a5,a5,0x1
10000c5c:	00078613          	mv	a2,a5
10000c60:	00070593          	mv	a1,a4
10000c64:	00068513          	mv	a0,a3
10000c68:	ce9ff0ef          	jal	ra,10000950 <memcpy>
10000c6c:	fcc42783          	lw	a5,-52(s0)
10000c70:	00179713          	slli	a4,a5,0x1
10000c74:	10400793          	li	a5,260
10000c78:	00f706b3          	add	a3,a4,a5
10000c7c:	fcc42783          	lw	a5,-52(s0)
10000c80:	00178793          	addi	a5,a5,1
10000c84:	00179713          	slli	a4,a5,0x1
10000c88:	100027b7          	lui	a5,0x10002
10000c8c:	2f078793          	addi	a5,a5,752 # 100022f0 <vnode_config_data>
10000c90:	00f705b3          	add	a1,a4,a5
10000c94:	12e00713          	li	a4,302
10000c98:	fcc42783          	lw	a5,-52(s0)
10000c9c:	40f707b3          	sub	a5,a4,a5
10000ca0:	00179793          	slli	a5,a5,0x1
10000ca4:	00078613          	mv	a2,a5
10000ca8:	00068513          	mv	a0,a3
10000cac:	ca5ff0ef          	jal	ra,10000950 <memcpy>
10000cb0:	00000793          	li	a5,0
10000cb4:	00078513          	mv	a0,a5
10000cb8:	03c12083          	lw	ra,60(sp)
10000cbc:	03812403          	lw	s0,56(sp)
10000cc0:	04010113          	addi	sp,sp,64
10000cc4:	00008067          	ret

10000cc8 <next_val>:
10000cc8:	fd010113          	addi	sp,sp,-48
10000ccc:	02812623          	sw	s0,44(sp)
10000cd0:	03010413          	addi	s0,sp,48
10000cd4:	fca42e23          	sw	a0,-36(s0)
10000cd8:	fdc42783          	lw	a5,-36(s0)
10000cdc:	00178793          	addi	a5,a5,1
10000ce0:	fef42623          	sw	a5,-20(s0)
10000ce4:	05c0006f          	j	10000d40 <next_val+0x78>
10000ce8:	fdc42783          	lw	a5,-36(s0)
10000cec:	fef42423          	sw	a5,-24(s0)
10000cf0:	0380006f          	j	10000d28 <next_val+0x60>
10000cf4:	100027b7          	lui	a5,0x10002
10000cf8:	fe842703          	lw	a4,-24(s0)
10000cfc:	00171713          	slli	a4,a4,0x1
10000d00:	2f078793          	addi	a5,a5,752 # 100022f0 <vnode_config_data>
10000d04:	00f707b3          	add	a5,a4,a5
10000d08:	0007d703          	lhu	a4,0(a5)
10000d0c:	07f00793          	li	a5,127
10000d10:	00f70663          	beq	a4,a5,10000d1c <next_val+0x54>
10000d14:	fec42783          	lw	a5,-20(s0)
10000d18:	0380006f          	j	10000d50 <next_val+0x88>
10000d1c:	fe842783          	lw	a5,-24(s0)
10000d20:	00178793          	addi	a5,a5,1
10000d24:	fef42423          	sw	a5,-24(s0)
10000d28:	fe842703          	lw	a4,-24(s0)
10000d2c:	fec42783          	lw	a5,-20(s0)
10000d30:	fcf742e3          	blt	a4,a5,10000cf4 <next_val+0x2c>
10000d34:	fec42783          	lw	a5,-20(s0)
10000d38:	00178793          	addi	a5,a5,1
10000d3c:	fef42623          	sw	a5,-20(s0)
10000d40:	fec42703          	lw	a4,-20(s0)
10000d44:	12d00793          	li	a5,301
10000d48:	fae7d0e3          	ble	a4,a5,10000ce8 <next_val+0x20>
10000d4c:	12e00793          	li	a5,302
10000d50:	00078513          	mv	a0,a5
10000d54:	02c12403          	lw	s0,44(sp)
10000d58:	03010113          	addi	sp,sp,48
10000d5c:	00008067          	ret

10000d60 <main>:
10000d60:	fe010113          	addi	sp,sp,-32
10000d64:	00112e23          	sw	ra,28(sp)
10000d68:	00812c23          	sw	s0,24(sp)
10000d6c:	02010413          	addi	s0,sp,32
10000d70:	f00037b7          	lui	a5,0xf0003
10000d74:	80078793          	addi	a5,a5,-2048 # f0002800 <_fdata_rom+0xdffffc00>
10000d78:	00100713          	li	a4,1
10000d7c:	00e7a023          	sw	a4,0(a5)
10000d80:	f00037b7          	lui	a5,0xf0003
10000d84:	80478793          	addi	a5,a5,-2044 # f0002804 <_fdata_rom+0xdffffc04>
10000d88:	0007a023          	sw	zero,0(a5)
10000d8c:	f00037b7          	lui	a5,0xf0003
10000d90:	80878793          	addi	a5,a5,-2040 # f0002808 <_fdata_rom+0xdffffc08>
10000d94:	00100713          	li	a4,1
10000d98:	00e7a023          	sw	a4,0(a5)
10000d9c:	f00037b7          	lui	a5,0xf0003
10000da0:	80c78793          	addi	a5,a5,-2036 # f000280c <_fdata_rom+0xdffffc0c>
10000da4:	0007a023          	sw	zero,0(a5)
10000da8:	f00067b7          	lui	a5,0xf0006
10000dac:	00100713          	li	a4,1
10000db0:	00e7a023          	sw	a4,0(a5) # f0006000 <_fdata_rom+0xe0003400>
10000db4:	f00047b7          	lui	a5,0xf0004
10000db8:	80078793          	addi	a5,a5,-2048 # f0003800 <_fdata_rom+0xe0000c00>
10000dbc:	00100713          	li	a4,1
10000dc0:	00e7a023          	sw	a4,0(a5)
10000dc4:	f2cff0ef          	jal	ra,100004f0 <configure_io>
10000dc8:	f00037b7          	lui	a5,0xf0003
10000dcc:	00c78713          	addi	a4,a5,12 # f000300c <_fdata_rom+0xe000040c>
10000dd0:	00000793          	li	a5,0
10000dd4:	00f72023          	sw	a5,0(a4)
10000dd8:	f0003737          	lui	a4,0xf0003
10000ddc:	01470713          	addi	a4,a4,20 # f0003014 <_fdata_rom+0xe0000414>
10000de0:	00f72023          	sw	a5,0(a4)
10000de4:	f00037b7          	lui	a5,0xf0003
10000de8:	00878713          	addi	a4,a5,8 # f0003008 <_fdata_rom+0xe0000408>
10000dec:	00000793          	li	a5,0
10000df0:	00f72023          	sw	a5,0(a4)
10000df4:	f0003737          	lui	a4,0xf0003
10000df8:	01070713          	addi	a4,a4,16 # f0003010 <_fdata_rom+0xe0000410>
10000dfc:	00f72023          	sw	a5,0(a4)
10000e00:	f00037b7          	lui	a5,0xf0003
10000e04:	00478713          	addi	a4,a5,4 # f0003004 <_fdata_rom+0xe0000404>
10000e08:	00000793          	li	a5,0
10000e0c:	00f72023          	sw	a5,0(a4)
10000e10:	f0003737          	lui	a4,0xf0003
10000e14:	00c70713          	addi	a4,a4,12 # f000300c <_fdata_rom+0xe000040c>
10000e18:	00f72023          	sw	a5,0(a4)
10000e1c:	f0003737          	lui	a4,0xf0003
10000e20:	00000793          	li	a5,0
10000e24:	00f72023          	sw	a5,0(a4) # f0003000 <_fdata_rom+0xe0000400>
10000e28:	f0003737          	lui	a4,0xf0003
10000e2c:	00870713          	addi	a4,a4,8 # f0003008 <_fdata_rom+0xe0000408>
10000e30:	00f72023          	sw	a5,0(a4)
10000e34:	3001a7b7          	lui	a5,0x3001a
10000e38:	00300713          	li	a4,3
10000e3c:	00e7a023          	sw	a4,0(a5) # 3001a000 <_fdata_rom+0x20017400>
10000e40:	000017b7          	lui	a5,0x1
10000e44:	8f778713          	addi	a4,a5,-1801 # 8f7 <_fstack+0xf7>
10000e48:	00100693          	li	a3,1
10000e4c:	00010637          	lui	a2,0x10
10000e50:	100017b7          	lui	a5,0x10001
10000e54:	10078593          	addi	a1,a5,256 # 10001100 <lblock_config_data>
10000e58:	00070513          	mv	a0,a4
10000e5c:	bc8ff0ef          	jal	ra,10000224 <load_scanchain>
10000e60:	2ec00713          	li	a4,748
10000e64:	00400693          	li	a3,4
10000e68:	00012637          	lui	a2,0x12
10000e6c:	100027b7          	lui	a5,0x10002
10000e70:	54c78593          	addi	a1,a5,1356 # 1000254c <hnode_config_data>
10000e74:	00070513          	mv	a0,a4
10000e78:	bacff0ef          	jal	ra,10000224 <load_scanchain>
10000e7c:	12e00713          	li	a4,302
10000e80:	00200693          	li	a3,2
10000e84:	00011637          	lui	a2,0x11
10000e88:	100027b7          	lui	a5,0x10002
10000e8c:	2f078593          	addi	a1,a5,752 # 100022f0 <vnode_config_data>
10000e90:	00070513          	mv	a0,a4
10000e94:	b90ff0ef          	jal	ra,10000224 <load_scanchain>
10000e98:	3001a7b7          	lui	a5,0x3001a
10000e9c:	0007a023          	sw	zero,0(a5) # 3001a000 <_fdata_rom+0x20017400>
10000ea0:	009897b7          	lui	a5,0x989
10000ea4:	68078513          	addi	a0,a5,1664 # 989680 <_fstack+0x988e80>
10000ea8:	8e5ff0ef          	jal	ra,1000078c <delay>
10000eac:	00a00793          	li	a5,10
10000eb0:	fef42623          	sw	a5,-20(s0)
10000eb4:	00a00793          	li	a5,10
10000eb8:	fef42423          	sw	a5,-24(s0)
10000ebc:	fe842503          	lw	a0,-24(s0)
10000ec0:	e09ff0ef          	jal	ra,10000cc8 <next_val>
10000ec4:	fea42423          	sw	a0,-24(s0)
10000ec8:	fe842703          	lw	a4,-24(s0)
10000ecc:	12e00793          	li	a5,302
10000ed0:	02f71a63          	bne	a4,a5,10000f04 <main+0x1a4>
10000ed4:	00a00793          	li	a5,10
10000ed8:	fef42423          	sw	a5,-24(s0)
10000edc:	fec42503          	lw	a0,-20(s0)
10000ee0:	de9ff0ef          	jal	ra,10000cc8 <next_val>
10000ee4:	fea42623          	sw	a0,-20(s0)
10000ee8:	fec42703          	lw	a4,-20(s0)
10000eec:	12e00793          	li	a5,302
10000ef0:	00f71a63          	bne	a4,a5,10000f04 <main+0x1a4>
10000ef4:	100037b7          	lui	a5,0x10003
10000ef8:	b6078513          	addi	a0,a5,-1184 # 10002b60 <hnode_config_data+0x614>
10000efc:	a05ff0ef          	jal	ra,10000900 <print>
10000f00:	1000006f          	j	10001000 <main+0x2a0>
10000f04:	fe842583          	lw	a1,-24(s0)
10000f08:	fec42503          	lw	a0,-20(s0)
10000f0c:	ac1ff0ef          	jal	ra,100009cc <mangle_data>
10000f10:	00050793          	mv	a5,a0
10000f14:	0e079263          	bnez	a5,10000ff8 <main+0x298>
10000f18:	100037b7          	lui	a5,0x10003
10000f1c:	b6878513          	addi	a0,a5,-1176 # 10002b68 <hnode_config_data+0x61c>
10000f20:	9e1ff0ef          	jal	ra,10000900 <print>
10000f24:	fec42783          	lw	a5,-20(s0)
10000f28:	00300593          	li	a1,3
10000f2c:	00078513          	mv	a0,a5
10000f30:	94dff0ef          	jal	ra,1000087c <print_hex>
10000f34:	02000513          	li	a0,32
10000f38:	8ddff0ef          	jal	ra,10000814 <putchar>
10000f3c:	fe842783          	lw	a5,-24(s0)
10000f40:	00300593          	li	a1,3
10000f44:	00078513          	mv	a0,a5
10000f48:	935ff0ef          	jal	ra,1000087c <print_hex>
10000f4c:	00a00513          	li	a0,10
10000f50:	8c5ff0ef          	jal	ra,10000814 <putchar>
10000f54:	100037b7          	lui	a5,0x10003
10000f58:	b7078513          	addi	a0,a5,-1168 # 10002b70 <hnode_config_data+0x624>
10000f5c:	9a5ff0ef          	jal	ra,10000900 <print>
10000f60:	100037b7          	lui	a5,0x10003
10000f64:	b7878513          	addi	a0,a5,-1160 # 10002b78 <hnode_config_data+0x62c>
10000f68:	999ff0ef          	jal	ra,10000900 <print>
10000f6c:	3001a7b7          	lui	a5,0x3001a
10000f70:	00300713          	li	a4,3
10000f74:	00e7a023          	sw	a4,0(a5) # 3001a000 <_fdata_rom+0x20017400>
10000f78:	100037b7          	lui	a5,0x10003
10000f7c:	b8878513          	addi	a0,a5,-1144 # 10002b88 <hnode_config_data+0x63c>
10000f80:	981ff0ef          	jal	ra,10000900 <print>
10000f84:	12e00713          	li	a4,302
10000f88:	00200693          	li	a3,2
10000f8c:	00011637          	lui	a2,0x11
10000f90:	10400593          	li	a1,260
10000f94:	00070513          	mv	a0,a4
10000f98:	a8cff0ef          	jal	ra,10000224 <load_scanchain>
10000f9c:	100037b7          	lui	a5,0x10003
10000fa0:	b9c78513          	addi	a0,a5,-1124 # 10002b9c <hnode_config_data+0x650>
10000fa4:	95dff0ef          	jal	ra,10000900 <print>
10000fa8:	100037b7          	lui	a5,0x10003
10000fac:	ba478513          	addi	a0,a5,-1116 # 10002ba4 <hnode_config_data+0x658>
10000fb0:	951ff0ef          	jal	ra,10000900 <print>
10000fb4:	3001a7b7          	lui	a5,0x3001a
10000fb8:	00100713          	li	a4,1
10000fbc:	00e7a023          	sw	a4,0(a5) # 3001a000 <_fdata_rom+0x20017400>
10000fc0:	3001a7b7          	lui	a5,0x3001a
10000fc4:	0007a023          	sw	zero,0(a5) # 3001a000 <_fdata_rom+0x20017400>
10000fc8:	100037b7          	lui	a5,0x10003
10000fcc:	bc078513          	addi	a0,a5,-1088 # 10002bc0 <hnode_config_data+0x674>
10000fd0:	931ff0ef          	jal	ra,10000900 <print>
10000fd4:	3001a7b7          	lui	a5,0x3001a
10000fd8:	00800713          	li	a4,8
10000fdc:	00e7a023          	sw	a4,0(a5) # 3001a000 <_fdata_rom+0x20017400>
10000fe0:	3001a7b7          	lui	a5,0x3001a
10000fe4:	0007a023          	sw	zero,0(a5) # 3001a000 <_fdata_rom+0x20017400>
10000fe8:	009897b7          	lui	a5,0x989
10000fec:	68078513          	addi	a0,a5,1664 # 989680 <_fstack+0x988e80>
10000ff0:	f9cff0ef          	jal	ra,1000078c <delay>
10000ff4:	ec9ff06f          	j	10000ebc <main+0x15c>
10000ff8:	00000013          	nop
10000ffc:	ec1ff06f          	j	10000ebc <main+0x15c>
10001000:	01c12083          	lw	ra,28(sp)
10001004:	01812403          	lw	s0,24(sp)
10001008:	02010113          	addi	sp,sp,32
1000100c:	00008067          	ret

10001010 <_etext>:
	...

Disassembly of section .rodata:

10001100 <lblock_config_data>:
10001100:	00030003          	lb	zero,0(t1)
10001104:	00030003          	lb	zero,0(t1)
10001108:	00030003          	lb	zero,0(t1)
1000110c:	00030003          	lb	zero,0(t1)
10001110:	00030003          	lb	zero,0(t1)
10001114:	00030003          	lb	zero,0(t1)
10001118:	00030003          	lb	zero,0(t1)
1000111c:	00030003          	lb	zero,0(t1)
10001120:	00030003          	lb	zero,0(t1)
10001124:	00030003          	lb	zero,0(t1)
10001128:	00030003          	lb	zero,0(t1)
1000112c:	00030003          	lb	zero,0(t1)
10001130:	00030003          	lb	zero,0(t1)
10001134:	00030003          	lb	zero,0(t1)
10001138:	00030003          	lb	zero,0(t1)
1000113c:	00030003          	lb	zero,0(t1)
10001140:	00030003          	lb	zero,0(t1)
10001144:	00030003          	lb	zero,0(t1)
10001148:	00030003          	lb	zero,0(t1)
1000114c:	00030003          	lb	zero,0(t1)
10001150:	00030003          	lb	zero,0(t1)
10001154:	00030003          	lb	zero,0(t1)
10001158:	00030003          	lb	zero,0(t1)
1000115c:	00030003          	lb	zero,0(t1)
10001160:	00030003          	lb	zero,0(t1)
10001164:	00030003          	lb	zero,0(t1)
10001168:	00030003          	lb	zero,0(t1)
1000116c:	00030003          	lb	zero,0(t1)
10001170:	00030003          	lb	zero,0(t1)
10001174:	00030003          	lb	zero,0(t1)
10001178:	00030003          	lb	zero,0(t1)
1000117c:	00030003          	lb	zero,0(t1)
	...
100011a0:	00000003          	lb	zero,0(zero) # 0 <__DYNAMIC>
100011a4:	0000                	unimp
100011a6:	0000                	unimp
100011a8:	00000003          	lb	zero,0(zero) # 0 <__DYNAMIC>
100011ac:	0000                	unimp
100011ae:	0000                	unimp
100011b0:	00000003          	lb	zero,0(zero) # 0 <__DYNAMIC>
100011b4:	0000                	unimp
100011b6:	0000                	unimp
100011b8:	00000003          	lb	zero,0(zero) # 0 <__DYNAMIC>
100011bc:	0000                	unimp
100011be:	0000                	unimp
100011c0:	0000                	unimp
100011c2:	00000003          	lb	zero,0(zero) # 0 <__DYNAMIC>
100011c6:	0000                	unimp
100011c8:	0000                	unimp
100011ca:	00000003          	lb	zero,0(zero) # 0 <__DYNAMIC>
100011ce:	0000                	unimp
100011d0:	0000                	unimp
100011d2:	00000003          	lb	zero,0(zero) # 0 <__DYNAMIC>
100011d6:	0000                	unimp
100011d8:	0000                	unimp
100011da:	00000003          	lb	zero,0(zero) # 0 <__DYNAMIC>
100011de:	0000                	unimp
100011e0:	00030003          	lb	zero,0(t1)
100011e4:	0000                	unimp
100011e6:	0000                	unimp
100011e8:	00030003          	lb	zero,0(t1)
100011ec:	0000                	unimp
100011ee:	0000                	unimp
100011f0:	00030003          	lb	zero,0(t1)
100011f4:	0000                	unimp
100011f6:	0000                	unimp
100011f8:	00030003          	lb	zero,0(t1)
	...
10001204:	00000003          	lb	zero,0(zero) # 0 <__DYNAMIC>
10001208:	0000                	unimp
1000120a:	0000                	unimp
1000120c:	00000003          	lb	zero,0(zero) # 0 <__DYNAMIC>
10001210:	0000                	unimp
10001212:	0000                	unimp
10001214:	00000003          	lb	zero,0(zero) # 0 <__DYNAMIC>
10001218:	0000                	unimp
1000121a:	0000                	unimp
1000121c:	00000003          	lb	zero,0(zero) # 0 <__DYNAMIC>
10001220:	00000003          	lb	zero,0(zero) # 0 <__DYNAMIC>
10001224:	00000003          	lb	zero,0(zero) # 0 <__DYNAMIC>
10001228:	00000003          	lb	zero,0(zero) # 0 <__DYNAMIC>
1000122c:	00000003          	lb	zero,0(zero) # 0 <__DYNAMIC>
10001230:	00000003          	lb	zero,0(zero) # 0 <__DYNAMIC>
10001234:	00000003          	lb	zero,0(zero) # 0 <__DYNAMIC>
10001238:	00000003          	lb	zero,0(zero) # 0 <__DYNAMIC>
1000123c:	00000003          	lb	zero,0(zero) # 0 <__DYNAMIC>
10001240:	0000                	unimp
10001242:	00030003          	lb	zero,0(t1)
10001246:	0000                	unimp
10001248:	0000                	unimp
1000124a:	00030003          	lb	zero,0(t1)
1000124e:	0000                	unimp
10001250:	0000                	unimp
10001252:	00030003          	lb	zero,0(t1)
10001256:	0000                	unimp
10001258:	0000                	unimp
1000125a:	00030003          	lb	zero,0(t1)
1000125e:	0000                	unimp
10001260:	00030003          	lb	zero,0(t1)
10001264:	00000003          	lb	zero,0(zero) # 0 <__DYNAMIC>
10001268:	00030003          	lb	zero,0(t1)
1000126c:	00000003          	lb	zero,0(zero) # 0 <__DYNAMIC>
10001270:	00030003          	lb	zero,0(t1)
10001274:	00000003          	lb	zero,0(zero) # 0 <__DYNAMIC>
10001278:	00030003          	lb	zero,0(t1)
1000127c:	00000003          	lb	zero,0(zero) # 0 <__DYNAMIC>
	...
1000136c:	0000                	unimp
1000136e:	0001                	nop
10001370:	0001                	nop
10001372:	0001                	nop
10001374:	0001                	nop
10001376:	0001                	nop
10001378:	0001                	nop
1000137a:	0001                	nop
1000137c:	0001                	nop
1000137e:	0001                	nop
10001380:	0001                	nop
10001382:	0001                	nop
10001384:	0001                	nop
10001386:	0001                	nop
10001388:	0001                	nop
1000138a:	0001                	nop
1000138c:	0001                	nop
1000138e:	0000                	unimp
10001390:	00030003          	lb	zero,0(t1)
10001394:	00030003          	lb	zero,0(t1)
10001398:	00030003          	lb	zero,0(t1)
1000139c:	00030003          	lb	zero,0(t1)
100013a0:	00030003          	lb	zero,0(t1)
100013a4:	00030003          	lb	zero,0(t1)
100013a8:	00030003          	lb	zero,0(t1)
100013ac:	00030003          	lb	zero,0(t1)
100013b0:	00030003          	lb	zero,0(t1)
100013b4:	00030003          	lb	zero,0(t1)
100013b8:	00030003          	lb	zero,0(t1)
100013bc:	00030003          	lb	zero,0(t1)
100013c0:	00030003          	lb	zero,0(t1)
100013c4:	00030003          	lb	zero,0(t1)
100013c8:	00030003          	lb	zero,0(t1)
100013cc:	00030003          	lb	zero,0(t1)
100013d0:	00030003          	lb	zero,0(t1)
100013d4:	00030003          	lb	zero,0(t1)
100013d8:	00030003          	lb	zero,0(t1)
100013dc:	00030003          	lb	zero,0(t1)
100013e0:	00030003          	lb	zero,0(t1)
100013e4:	00030003          	lb	zero,0(t1)
100013e8:	00030003          	lb	zero,0(t1)
100013ec:	00030003          	lb	zero,0(t1)
100013f0:	00030003          	lb	zero,0(t1)
100013f4:	00030003          	lb	zero,0(t1)
100013f8:	00030003          	lb	zero,0(t1)
100013fc:	00030003          	lb	zero,0(t1)
10001400:	00030003          	lb	zero,0(t1)
10001404:	00030003          	lb	zero,0(t1)
10001408:	00030003          	lb	zero,0(t1)
1000140c:	00030003          	lb	zero,0(t1)
	...
10001430:	00000003          	lb	zero,0(zero) # 0 <__DYNAMIC>
10001434:	0000                	unimp
10001436:	0000                	unimp
10001438:	00000003          	lb	zero,0(zero) # 0 <__DYNAMIC>
1000143c:	0000                	unimp
1000143e:	0000                	unimp
10001440:	00000003          	lb	zero,0(zero) # 0 <__DYNAMIC>
10001444:	0000                	unimp
10001446:	0000                	unimp
10001448:	00000003          	lb	zero,0(zero) # 0 <__DYNAMIC>
1000144c:	0000                	unimp
1000144e:	0000                	unimp
10001450:	0000                	unimp
10001452:	00000003          	lb	zero,0(zero) # 0 <__DYNAMIC>
10001456:	0000                	unimp
10001458:	0000                	unimp
1000145a:	00000003          	lb	zero,0(zero) # 0 <__DYNAMIC>
1000145e:	0000                	unimp
10001460:	0000                	unimp
10001462:	00000003          	lb	zero,0(zero) # 0 <__DYNAMIC>
10001466:	0000                	unimp
10001468:	0000                	unimp
1000146a:	00000003          	lb	zero,0(zero) # 0 <__DYNAMIC>
1000146e:	0000                	unimp
10001470:	00030003          	lb	zero,0(t1)
10001474:	0000                	unimp
10001476:	0000                	unimp
10001478:	00030003          	lb	zero,0(t1)
1000147c:	0000                	unimp
1000147e:	0000                	unimp
10001480:	00030003          	lb	zero,0(t1)
10001484:	0000                	unimp
10001486:	0000                	unimp
10001488:	00030003          	lb	zero,0(t1)
	...
10001494:	00000003          	lb	zero,0(zero) # 0 <__DYNAMIC>
10001498:	0000                	unimp
1000149a:	0000                	unimp
1000149c:	00000003          	lb	zero,0(zero) # 0 <__DYNAMIC>
100014a0:	0000                	unimp
100014a2:	0000                	unimp
100014a4:	00000003          	lb	zero,0(zero) # 0 <__DYNAMIC>
100014a8:	0000                	unimp
100014aa:	0000                	unimp
100014ac:	00000003          	lb	zero,0(zero) # 0 <__DYNAMIC>
100014b0:	00000003          	lb	zero,0(zero) # 0 <__DYNAMIC>
100014b4:	00000003          	lb	zero,0(zero) # 0 <__DYNAMIC>
100014b8:	00000003          	lb	zero,0(zero) # 0 <__DYNAMIC>
100014bc:	00000003          	lb	zero,0(zero) # 0 <__DYNAMIC>
100014c0:	00000003          	lb	zero,0(zero) # 0 <__DYNAMIC>
100014c4:	00000003          	lb	zero,0(zero) # 0 <__DYNAMIC>
100014c8:	00000003          	lb	zero,0(zero) # 0 <__DYNAMIC>
100014cc:	00000003          	lb	zero,0(zero) # 0 <__DYNAMIC>
100014d0:	0000                	unimp
100014d2:	00030003          	lb	zero,0(t1)
100014d6:	0000                	unimp
100014d8:	0000                	unimp
100014da:	00030003          	lb	zero,0(t1)
100014de:	0000                	unimp
100014e0:	0000                	unimp
100014e2:	00030003          	lb	zero,0(t1)
100014e6:	0000                	unimp
100014e8:	0000                	unimp
100014ea:	00030003          	lb	zero,0(t1)
100014ee:	0000                	unimp
100014f0:	00030003          	lb	zero,0(t1)
100014f4:	00000003          	lb	zero,0(zero) # 0 <__DYNAMIC>
100014f8:	00030003          	lb	zero,0(t1)
100014fc:	00000003          	lb	zero,0(zero) # 0 <__DYNAMIC>
10001500:	00030003          	lb	zero,0(t1)
10001504:	00000003          	lb	zero,0(zero) # 0 <__DYNAMIC>
10001508:	00030003          	lb	zero,0(t1)
1000150c:	00000003          	lb	zero,0(zero) # 0 <__DYNAMIC>
	...
10001620:	00030003          	lb	zero,0(t1)
10001624:	00030003          	lb	zero,0(t1)
10001628:	00030003          	lb	zero,0(t1)
1000162c:	00030003          	lb	zero,0(t1)
10001630:	00030003          	lb	zero,0(t1)
10001634:	00030003          	lb	zero,0(t1)
10001638:	00030003          	lb	zero,0(t1)
1000163c:	00030003          	lb	zero,0(t1)
10001640:	00030003          	lb	zero,0(t1)
10001644:	00030003          	lb	zero,0(t1)
10001648:	00030003          	lb	zero,0(t1)
1000164c:	00030003          	lb	zero,0(t1)
10001650:	00030003          	lb	zero,0(t1)
10001654:	00030003          	lb	zero,0(t1)
10001658:	00030003          	lb	zero,0(t1)
1000165c:	00030003          	lb	zero,0(t1)
10001660:	00030003          	lb	zero,0(t1)
10001664:	00030003          	lb	zero,0(t1)
10001668:	00030003          	lb	zero,0(t1)
1000166c:	00030003          	lb	zero,0(t1)
10001670:	00030003          	lb	zero,0(t1)
10001674:	00030003          	lb	zero,0(t1)
10001678:	00030003          	lb	zero,0(t1)
1000167c:	00030003          	lb	zero,0(t1)
10001680:	00030003          	lb	zero,0(t1)
10001684:	00030003          	lb	zero,0(t1)
10001688:	00030003          	lb	zero,0(t1)
1000168c:	00030003          	lb	zero,0(t1)
10001690:	00030003          	lb	zero,0(t1)
10001694:	00030003          	lb	zero,0(t1)
10001698:	00030003          	lb	zero,0(t1)
1000169c:	00030003          	lb	zero,0(t1)
	...
100016c0:	00000003          	lb	zero,0(zero) # 0 <__DYNAMIC>
100016c4:	0000                	unimp
100016c6:	0000                	unimp
100016c8:	00000003          	lb	zero,0(zero) # 0 <__DYNAMIC>
100016cc:	0000                	unimp
100016ce:	0000                	unimp
100016d0:	00000003          	lb	zero,0(zero) # 0 <__DYNAMIC>
100016d4:	0000                	unimp
100016d6:	0000                	unimp
100016d8:	00000003          	lb	zero,0(zero) # 0 <__DYNAMIC>
100016dc:	0000                	unimp
100016de:	0000                	unimp
100016e0:	0000                	unimp
100016e2:	00000003          	lb	zero,0(zero) # 0 <__DYNAMIC>
100016e6:	0000                	unimp
100016e8:	0000                	unimp
100016ea:	00000003          	lb	zero,0(zero) # 0 <__DYNAMIC>
100016ee:	0000                	unimp
100016f0:	0000                	unimp
100016f2:	00000003          	lb	zero,0(zero) # 0 <__DYNAMIC>
100016f6:	0000                	unimp
100016f8:	0000                	unimp
100016fa:	00000003          	lb	zero,0(zero) # 0 <__DYNAMIC>
100016fe:	0000                	unimp
10001700:	00030003          	lb	zero,0(t1)
10001704:	0000                	unimp
10001706:	0000                	unimp
10001708:	00030003          	lb	zero,0(t1)
1000170c:	0000                	unimp
1000170e:	0000                	unimp
10001710:	00030003          	lb	zero,0(t1)
10001714:	0000                	unimp
10001716:	0000                	unimp
10001718:	00030003          	lb	zero,0(t1)
	...
10001724:	00000003          	lb	zero,0(zero) # 0 <__DYNAMIC>
10001728:	0000                	unimp
1000172a:	0000                	unimp
1000172c:	00000003          	lb	zero,0(zero) # 0 <__DYNAMIC>
10001730:	0000                	unimp
10001732:	0000                	unimp
10001734:	00000003          	lb	zero,0(zero) # 0 <__DYNAMIC>
10001738:	0000                	unimp
1000173a:	0000                	unimp
1000173c:	00000003          	lb	zero,0(zero) # 0 <__DYNAMIC>
10001740:	00000003          	lb	zero,0(zero) # 0 <__DYNAMIC>
10001744:	00000003          	lb	zero,0(zero) # 0 <__DYNAMIC>
10001748:	00000003          	lb	zero,0(zero) # 0 <__DYNAMIC>
1000174c:	00000003          	lb	zero,0(zero) # 0 <__DYNAMIC>
10001750:	00000003          	lb	zero,0(zero) # 0 <__DYNAMIC>
10001754:	00000003          	lb	zero,0(zero) # 0 <__DYNAMIC>
10001758:	00000003          	lb	zero,0(zero) # 0 <__DYNAMIC>
1000175c:	00000003          	lb	zero,0(zero) # 0 <__DYNAMIC>
10001760:	0000                	unimp
10001762:	00030003          	lb	zero,0(t1)
10001766:	0000                	unimp
10001768:	0000                	unimp
1000176a:	00030003          	lb	zero,0(t1)
1000176e:	0000                	unimp
10001770:	0000                	unimp
10001772:	00030003          	lb	zero,0(t1)
10001776:	0000                	unimp
10001778:	0000                	unimp
1000177a:	00030003          	lb	zero,0(t1)
1000177e:	0000                	unimp
10001780:	00030003          	lb	zero,0(t1)
10001784:	00000003          	lb	zero,0(zero) # 0 <__DYNAMIC>
10001788:	00030003          	lb	zero,0(t1)
1000178c:	00000003          	lb	zero,0(zero) # 0 <__DYNAMIC>
10001790:	00030003          	lb	zero,0(t1)
10001794:	00000003          	lb	zero,0(zero) # 0 <__DYNAMIC>
10001798:	00030003          	lb	zero,0(t1)
1000179c:	00000003          	lb	zero,0(zero) # 0 <__DYNAMIC>
	...
100018b0:	00030003          	lb	zero,0(t1)
100018b4:	00030003          	lb	zero,0(t1)
100018b8:	00030003          	lb	zero,0(t1)
100018bc:	00030003          	lb	zero,0(t1)
100018c0:	00030003          	lb	zero,0(t1)
100018c4:	00030003          	lb	zero,0(t1)
100018c8:	00030003          	lb	zero,0(t1)
100018cc:	00030003          	lb	zero,0(t1)
100018d0:	00030003          	lb	zero,0(t1)
100018d4:	00030003          	lb	zero,0(t1)
100018d8:	00030003          	lb	zero,0(t1)
100018dc:	00030003          	lb	zero,0(t1)
100018e0:	00030003          	lb	zero,0(t1)
100018e4:	00030003          	lb	zero,0(t1)
100018e8:	00030003          	lb	zero,0(t1)
100018ec:	00030003          	lb	zero,0(t1)
100018f0:	00030003          	lb	zero,0(t1)
100018f4:	00030003          	lb	zero,0(t1)
100018f8:	00030003          	lb	zero,0(t1)
100018fc:	00030003          	lb	zero,0(t1)
10001900:	00030003          	lb	zero,0(t1)
10001904:	00030003          	lb	zero,0(t1)
10001908:	00030003          	lb	zero,0(t1)
1000190c:	00030003          	lb	zero,0(t1)
10001910:	00030003          	lb	zero,0(t1)
10001914:	00030003          	lb	zero,0(t1)
10001918:	00030003          	lb	zero,0(t1)
1000191c:	00030003          	lb	zero,0(t1)
10001920:	00030003          	lb	zero,0(t1)
10001924:	00030003          	lb	zero,0(t1)
10001928:	00030003          	lb	zero,0(t1)
1000192c:	00030003          	lb	zero,0(t1)
	...
10001950:	00000003          	lb	zero,0(zero) # 0 <__DYNAMIC>
10001954:	0000                	unimp
10001956:	0000                	unimp
10001958:	00000003          	lb	zero,0(zero) # 0 <__DYNAMIC>
1000195c:	0000                	unimp
1000195e:	0000                	unimp
10001960:	00000003          	lb	zero,0(zero) # 0 <__DYNAMIC>
10001964:	0000                	unimp
10001966:	0000                	unimp
10001968:	00000003          	lb	zero,0(zero) # 0 <__DYNAMIC>
1000196c:	0000                	unimp
1000196e:	0000                	unimp
10001970:	0000                	unimp
10001972:	00000003          	lb	zero,0(zero) # 0 <__DYNAMIC>
10001976:	0000                	unimp
10001978:	0000                	unimp
1000197a:	00000003          	lb	zero,0(zero) # 0 <__DYNAMIC>
1000197e:	0000                	unimp
10001980:	0000                	unimp
10001982:	00000003          	lb	zero,0(zero) # 0 <__DYNAMIC>
10001986:	0000                	unimp
10001988:	0000                	unimp
1000198a:	00000003          	lb	zero,0(zero) # 0 <__DYNAMIC>
1000198e:	0000                	unimp
10001990:	00030003          	lb	zero,0(t1)
10001994:	0000                	unimp
10001996:	0000                	unimp
10001998:	00030003          	lb	zero,0(t1)
1000199c:	0000                	unimp
1000199e:	0000                	unimp
100019a0:	00030003          	lb	zero,0(t1)
100019a4:	0000                	unimp
100019a6:	0000                	unimp
100019a8:	00030003          	lb	zero,0(t1)
	...
100019b4:	00000003          	lb	zero,0(zero) # 0 <__DYNAMIC>
100019b8:	0000                	unimp
100019ba:	0000                	unimp
100019bc:	00000003          	lb	zero,0(zero) # 0 <__DYNAMIC>
100019c0:	0000                	unimp
100019c2:	0000                	unimp
100019c4:	00000003          	lb	zero,0(zero) # 0 <__DYNAMIC>
100019c8:	0000                	unimp
100019ca:	0000                	unimp
100019cc:	00000003          	lb	zero,0(zero) # 0 <__DYNAMIC>
100019d0:	00000003          	lb	zero,0(zero) # 0 <__DYNAMIC>
100019d4:	00000003          	lb	zero,0(zero) # 0 <__DYNAMIC>
100019d8:	00000003          	lb	zero,0(zero) # 0 <__DYNAMIC>
100019dc:	00000003          	lb	zero,0(zero) # 0 <__DYNAMIC>
100019e0:	00000003          	lb	zero,0(zero) # 0 <__DYNAMIC>
100019e4:	00000003          	lb	zero,0(zero) # 0 <__DYNAMIC>
100019e8:	00000003          	lb	zero,0(zero) # 0 <__DYNAMIC>
100019ec:	00000003          	lb	zero,0(zero) # 0 <__DYNAMIC>
100019f0:	0000                	unimp
100019f2:	00030003          	lb	zero,0(t1)
100019f6:	0000                	unimp
100019f8:	0000                	unimp
100019fa:	00030003          	lb	zero,0(t1)
100019fe:	0000                	unimp
10001a00:	0000                	unimp
10001a02:	00030003          	lb	zero,0(t1)
10001a06:	0000                	unimp
10001a08:	0000                	unimp
10001a0a:	00030003          	lb	zero,0(t1)
10001a0e:	0000                	unimp
10001a10:	00030003          	lb	zero,0(t1)
10001a14:	00000003          	lb	zero,0(zero) # 0 <__DYNAMIC>
10001a18:	00030003          	lb	zero,0(t1)
10001a1c:	00000003          	lb	zero,0(zero) # 0 <__DYNAMIC>
10001a20:	00030003          	lb	zero,0(t1)
10001a24:	00000003          	lb	zero,0(zero) # 0 <__DYNAMIC>
10001a28:	00030003          	lb	zero,0(t1)
10001a2c:	00000003          	lb	zero,0(zero) # 0 <__DYNAMIC>
	...
10001b40:	00030003          	lb	zero,0(t1)
10001b44:	00030003          	lb	zero,0(t1)
10001b48:	00030003          	lb	zero,0(t1)
10001b4c:	00030003          	lb	zero,0(t1)
10001b50:	00030003          	lb	zero,0(t1)
10001b54:	00030003          	lb	zero,0(t1)
10001b58:	00030003          	lb	zero,0(t1)
10001b5c:	00030003          	lb	zero,0(t1)
10001b60:	00030003          	lb	zero,0(t1)
10001b64:	00030003          	lb	zero,0(t1)
10001b68:	00030003          	lb	zero,0(t1)
10001b6c:	00030003          	lb	zero,0(t1)
10001b70:	00030003          	lb	zero,0(t1)
10001b74:	00030003          	lb	zero,0(t1)
10001b78:	00030003          	lb	zero,0(t1)
10001b7c:	00030003          	lb	zero,0(t1)
10001b80:	00030003          	lb	zero,0(t1)
10001b84:	00030003          	lb	zero,0(t1)
10001b88:	00030003          	lb	zero,0(t1)
10001b8c:	00030003          	lb	zero,0(t1)
10001b90:	00030003          	lb	zero,0(t1)
10001b94:	00030003          	lb	zero,0(t1)
10001b98:	00030003          	lb	zero,0(t1)
10001b9c:	00030003          	lb	zero,0(t1)
10001ba0:	00030003          	lb	zero,0(t1)
10001ba4:	00030003          	lb	zero,0(t1)
10001ba8:	00030003          	lb	zero,0(t1)
10001bac:	00030003          	lb	zero,0(t1)
10001bb0:	00030003          	lb	zero,0(t1)
10001bb4:	00030003          	lb	zero,0(t1)
10001bb8:	00030003          	lb	zero,0(t1)
10001bbc:	00030003          	lb	zero,0(t1)
	...
10001be0:	00000003          	lb	zero,0(zero) # 0 <__DYNAMIC>
10001be4:	0000                	unimp
10001be6:	0000                	unimp
10001be8:	00000003          	lb	zero,0(zero) # 0 <__DYNAMIC>
10001bec:	0000                	unimp
10001bee:	0000                	unimp
10001bf0:	00000003          	lb	zero,0(zero) # 0 <__DYNAMIC>
10001bf4:	0000                	unimp
10001bf6:	0000                	unimp
10001bf8:	00000003          	lb	zero,0(zero) # 0 <__DYNAMIC>
10001bfc:	0000                	unimp
10001bfe:	0000                	unimp
10001c00:	0000                	unimp
10001c02:	00000003          	lb	zero,0(zero) # 0 <__DYNAMIC>
10001c06:	0000                	unimp
10001c08:	0000                	unimp
10001c0a:	00000003          	lb	zero,0(zero) # 0 <__DYNAMIC>
10001c0e:	0000                	unimp
10001c10:	0000                	unimp
10001c12:	00000003          	lb	zero,0(zero) # 0 <__DYNAMIC>
10001c16:	0000                	unimp
10001c18:	0000                	unimp
10001c1a:	00000003          	lb	zero,0(zero) # 0 <__DYNAMIC>
10001c1e:	0000                	unimp
10001c20:	00030003          	lb	zero,0(t1)
10001c24:	0000                	unimp
10001c26:	0000                	unimp
10001c28:	00030003          	lb	zero,0(t1)
10001c2c:	0000                	unimp
10001c2e:	0000                	unimp
10001c30:	00030003          	lb	zero,0(t1)
10001c34:	0000                	unimp
10001c36:	0000                	unimp
10001c38:	00030003          	lb	zero,0(t1)
	...
10001c44:	00000003          	lb	zero,0(zero) # 0 <__DYNAMIC>
10001c48:	0000                	unimp
10001c4a:	0000                	unimp
10001c4c:	00000003          	lb	zero,0(zero) # 0 <__DYNAMIC>
10001c50:	0000                	unimp
10001c52:	0000                	unimp
10001c54:	00000003          	lb	zero,0(zero) # 0 <__DYNAMIC>
10001c58:	0000                	unimp
10001c5a:	0000                	unimp
10001c5c:	00000003          	lb	zero,0(zero) # 0 <__DYNAMIC>
10001c60:	00000003          	lb	zero,0(zero) # 0 <__DYNAMIC>
10001c64:	00000003          	lb	zero,0(zero) # 0 <__DYNAMIC>
10001c68:	00000003          	lb	zero,0(zero) # 0 <__DYNAMIC>
10001c6c:	00000003          	lb	zero,0(zero) # 0 <__DYNAMIC>
10001c70:	00000003          	lb	zero,0(zero) # 0 <__DYNAMIC>
10001c74:	00000003          	lb	zero,0(zero) # 0 <__DYNAMIC>
10001c78:	00000003          	lb	zero,0(zero) # 0 <__DYNAMIC>
10001c7c:	00000003          	lb	zero,0(zero) # 0 <__DYNAMIC>
10001c80:	0000                	unimp
10001c82:	00030003          	lb	zero,0(t1)
10001c86:	0000                	unimp
10001c88:	0000                	unimp
10001c8a:	00030003          	lb	zero,0(t1)
10001c8e:	0000                	unimp
10001c90:	0000                	unimp
10001c92:	00030003          	lb	zero,0(t1)
10001c96:	0000                	unimp
10001c98:	0000                	unimp
10001c9a:	00030003          	lb	zero,0(t1)
10001c9e:	0000                	unimp
10001ca0:	00030003          	lb	zero,0(t1)
10001ca4:	00000003          	lb	zero,0(zero) # 0 <__DYNAMIC>
10001ca8:	00030003          	lb	zero,0(t1)
10001cac:	00000003          	lb	zero,0(zero) # 0 <__DYNAMIC>
10001cb0:	00030003          	lb	zero,0(t1)
10001cb4:	00000003          	lb	zero,0(zero) # 0 <__DYNAMIC>
10001cb8:	00030003          	lb	zero,0(t1)
10001cbc:	00000003          	lb	zero,0(zero) # 0 <__DYNAMIC>
	...
10001dd0:	00030003          	lb	zero,0(t1)
10001dd4:	00030003          	lb	zero,0(t1)
10001dd8:	00030003          	lb	zero,0(t1)
10001ddc:	00030003          	lb	zero,0(t1)
10001de0:	00030003          	lb	zero,0(t1)
10001de4:	00030003          	lb	zero,0(t1)
10001de8:	00030003          	lb	zero,0(t1)
10001dec:	00030003          	lb	zero,0(t1)
10001df0:	00030003          	lb	zero,0(t1)
10001df4:	00030003          	lb	zero,0(t1)
10001df8:	00030003          	lb	zero,0(t1)
10001dfc:	00030003          	lb	zero,0(t1)
10001e00:	00030003          	lb	zero,0(t1)
10001e04:	00030003          	lb	zero,0(t1)
10001e08:	00030003          	lb	zero,0(t1)
10001e0c:	00030003          	lb	zero,0(t1)
10001e10:	00030003          	lb	zero,0(t1)
10001e14:	00030003          	lb	zero,0(t1)
10001e18:	00030003          	lb	zero,0(t1)
10001e1c:	00030003          	lb	zero,0(t1)
10001e20:	00030003          	lb	zero,0(t1)
10001e24:	00030003          	lb	zero,0(t1)
10001e28:	00030003          	lb	zero,0(t1)
10001e2c:	00030003          	lb	zero,0(t1)
10001e30:	00030003          	lb	zero,0(t1)
10001e34:	00030003          	lb	zero,0(t1)
10001e38:	00030003          	lb	zero,0(t1)
10001e3c:	00030003          	lb	zero,0(t1)
10001e40:	00030003          	lb	zero,0(t1)
10001e44:	00030003          	lb	zero,0(t1)
10001e48:	00030003          	lb	zero,0(t1)
10001e4c:	00030003          	lb	zero,0(t1)
	...
10001e70:	00000003          	lb	zero,0(zero) # 0 <__DYNAMIC>
10001e74:	0000                	unimp
10001e76:	0000                	unimp
10001e78:	00000003          	lb	zero,0(zero) # 0 <__DYNAMIC>
10001e7c:	0000                	unimp
10001e7e:	0000                	unimp
10001e80:	00000003          	lb	zero,0(zero) # 0 <__DYNAMIC>
10001e84:	0000                	unimp
10001e86:	0000                	unimp
10001e88:	00000003          	lb	zero,0(zero) # 0 <__DYNAMIC>
10001e8c:	0000                	unimp
10001e8e:	0000                	unimp
10001e90:	0000                	unimp
10001e92:	00000003          	lb	zero,0(zero) # 0 <__DYNAMIC>
10001e96:	0000                	unimp
10001e98:	0000                	unimp
10001e9a:	00000003          	lb	zero,0(zero) # 0 <__DYNAMIC>
10001e9e:	0000                	unimp
10001ea0:	0000                	unimp
10001ea2:	00000003          	lb	zero,0(zero) # 0 <__DYNAMIC>
10001ea6:	0000                	unimp
10001ea8:	0000                	unimp
10001eaa:	00000003          	lb	zero,0(zero) # 0 <__DYNAMIC>
10001eae:	0000                	unimp
10001eb0:	00030003          	lb	zero,0(t1)
10001eb4:	0000                	unimp
10001eb6:	0000                	unimp
10001eb8:	00030003          	lb	zero,0(t1)
10001ebc:	0000                	unimp
10001ebe:	0000                	unimp
10001ec0:	00030003          	lb	zero,0(t1)
10001ec4:	0000                	unimp
10001ec6:	0000                	unimp
10001ec8:	00030003          	lb	zero,0(t1)
	...
10001ed4:	00000003          	lb	zero,0(zero) # 0 <__DYNAMIC>
10001ed8:	0000                	unimp
10001eda:	0000                	unimp
10001edc:	00000003          	lb	zero,0(zero) # 0 <__DYNAMIC>
10001ee0:	0000                	unimp
10001ee2:	0000                	unimp
10001ee4:	00000003          	lb	zero,0(zero) # 0 <__DYNAMIC>
10001ee8:	0000                	unimp
10001eea:	0000                	unimp
10001eec:	00000003          	lb	zero,0(zero) # 0 <__DYNAMIC>
10001ef0:	00000003          	lb	zero,0(zero) # 0 <__DYNAMIC>
10001ef4:	00000003          	lb	zero,0(zero) # 0 <__DYNAMIC>
10001ef8:	00000003          	lb	zero,0(zero) # 0 <__DYNAMIC>
10001efc:	00000003          	lb	zero,0(zero) # 0 <__DYNAMIC>
10001f00:	00000003          	lb	zero,0(zero) # 0 <__DYNAMIC>
10001f04:	00000003          	lb	zero,0(zero) # 0 <__DYNAMIC>
10001f08:	00000003          	lb	zero,0(zero) # 0 <__DYNAMIC>
10001f0c:	00000003          	lb	zero,0(zero) # 0 <__DYNAMIC>
10001f10:	0000                	unimp
10001f12:	00030003          	lb	zero,0(t1)
10001f16:	0000                	unimp
10001f18:	0000                	unimp
10001f1a:	00030003          	lb	zero,0(t1)
10001f1e:	0000                	unimp
10001f20:	0000                	unimp
10001f22:	00030003          	lb	zero,0(t1)
10001f26:	0000                	unimp
10001f28:	0000                	unimp
10001f2a:	00030003          	lb	zero,0(t1)
10001f2e:	0000                	unimp
10001f30:	00030003          	lb	zero,0(t1)
10001f34:	00000003          	lb	zero,0(zero) # 0 <__DYNAMIC>
10001f38:	00030003          	lb	zero,0(t1)
10001f3c:	00000003          	lb	zero,0(zero) # 0 <__DYNAMIC>
10001f40:	00030003          	lb	zero,0(t1)
10001f44:	00000003          	lb	zero,0(zero) # 0 <__DYNAMIC>
10001f48:	00030003          	lb	zero,0(t1)
10001f4c:	00000003          	lb	zero,0(zero) # 0 <__DYNAMIC>
	...
10002060:	00030003          	lb	zero,0(t1)
10002064:	00030003          	lb	zero,0(t1)
10002068:	00030003          	lb	zero,0(t1)
1000206c:	00030003          	lb	zero,0(t1)
10002070:	00030003          	lb	zero,0(t1)
10002074:	00030003          	lb	zero,0(t1)
10002078:	00030003          	lb	zero,0(t1)
1000207c:	00030003          	lb	zero,0(t1)
10002080:	00030003          	lb	zero,0(t1)
10002084:	00030003          	lb	zero,0(t1)
10002088:	00030003          	lb	zero,0(t1)
1000208c:	00030003          	lb	zero,0(t1)
10002090:	00030003          	lb	zero,0(t1)
10002094:	00030003          	lb	zero,0(t1)
10002098:	00030003          	lb	zero,0(t1)
1000209c:	00030003          	lb	zero,0(t1)
100020a0:	00030003          	lb	zero,0(t1)
100020a4:	00030003          	lb	zero,0(t1)
100020a8:	00030003          	lb	zero,0(t1)
100020ac:	00030003          	lb	zero,0(t1)
100020b0:	00030003          	lb	zero,0(t1)
100020b4:	00030003          	lb	zero,0(t1)
100020b8:	00030003          	lb	zero,0(t1)
100020bc:	00030003          	lb	zero,0(t1)
100020c0:	00030003          	lb	zero,0(t1)
100020c4:	00030003          	lb	zero,0(t1)
100020c8:	00030003          	lb	zero,0(t1)
100020cc:	00030003          	lb	zero,0(t1)
100020d0:	00030003          	lb	zero,0(t1)
100020d4:	00030003          	lb	zero,0(t1)
100020d8:	00030003          	lb	zero,0(t1)
100020dc:	00030003          	lb	zero,0(t1)
	...
10002100:	00000003          	lb	zero,0(zero) # 0 <__DYNAMIC>
10002104:	0000                	unimp
10002106:	0000                	unimp
10002108:	00000003          	lb	zero,0(zero) # 0 <__DYNAMIC>
1000210c:	0000                	unimp
1000210e:	0000                	unimp
10002110:	00000003          	lb	zero,0(zero) # 0 <__DYNAMIC>
10002114:	0000                	unimp
10002116:	0000                	unimp
10002118:	00000003          	lb	zero,0(zero) # 0 <__DYNAMIC>
1000211c:	0000                	unimp
1000211e:	0000                	unimp
10002120:	0000                	unimp
10002122:	00000003          	lb	zero,0(zero) # 0 <__DYNAMIC>
10002126:	0000                	unimp
10002128:	0000                	unimp
1000212a:	00000003          	lb	zero,0(zero) # 0 <__DYNAMIC>
1000212e:	0000                	unimp
10002130:	0000                	unimp
10002132:	00000003          	lb	zero,0(zero) # 0 <__DYNAMIC>
10002136:	0000                	unimp
10002138:	0000                	unimp
1000213a:	00000003          	lb	zero,0(zero) # 0 <__DYNAMIC>
1000213e:	0000                	unimp
10002140:	00030003          	lb	zero,0(t1)
10002144:	0000                	unimp
10002146:	0000                	unimp
10002148:	00030003          	lb	zero,0(t1)
1000214c:	0000                	unimp
1000214e:	0000                	unimp
10002150:	00030003          	lb	zero,0(t1)
10002154:	0000                	unimp
10002156:	0000                	unimp
10002158:	00030003          	lb	zero,0(t1)
	...
10002164:	00000003          	lb	zero,0(zero) # 0 <__DYNAMIC>
10002168:	0000                	unimp
1000216a:	0000                	unimp
1000216c:	00000003          	lb	zero,0(zero) # 0 <__DYNAMIC>
10002170:	0000                	unimp
10002172:	0000                	unimp
10002174:	00000003          	lb	zero,0(zero) # 0 <__DYNAMIC>
10002178:	0000                	unimp
1000217a:	0000                	unimp
1000217c:	00000003          	lb	zero,0(zero) # 0 <__DYNAMIC>
10002180:	00000003          	lb	zero,0(zero) # 0 <__DYNAMIC>
10002184:	00000003          	lb	zero,0(zero) # 0 <__DYNAMIC>
10002188:	00000003          	lb	zero,0(zero) # 0 <__DYNAMIC>
1000218c:	00000003          	lb	zero,0(zero) # 0 <__DYNAMIC>
10002190:	00000003          	lb	zero,0(zero) # 0 <__DYNAMIC>
10002194:	00000003          	lb	zero,0(zero) # 0 <__DYNAMIC>
10002198:	00000003          	lb	zero,0(zero) # 0 <__DYNAMIC>
1000219c:	00000003          	lb	zero,0(zero) # 0 <__DYNAMIC>
100021a0:	0000                	unimp
100021a2:	00030003          	lb	zero,0(t1)
100021a6:	0000                	unimp
100021a8:	0000                	unimp
100021aa:	00030003          	lb	zero,0(t1)
100021ae:	0000                	unimp
100021b0:	0000                	unimp
100021b2:	00030003          	lb	zero,0(t1)
100021b6:	0000                	unimp
100021b8:	0000                	unimp
100021ba:	00030003          	lb	zero,0(t1)
100021be:	0000                	unimp
100021c0:	00030003          	lb	zero,0(t1)
100021c4:	00000003          	lb	zero,0(zero) # 0 <__DYNAMIC>
100021c8:	00030003          	lb	zero,0(t1)
100021cc:	00000003          	lb	zero,0(zero) # 0 <__DYNAMIC>
100021d0:	00030003          	lb	zero,0(t1)
100021d4:	00000003          	lb	zero,0(zero) # 0 <__DYNAMIC>
100021d8:	00030003          	lb	zero,0(t1)
100021dc:	00000003          	lb	zero,0(zero) # 0 <__DYNAMIC>
	...

100022f0 <vnode_config_data>:
100022f0:	0000                	unimp
100022f2:	0001                	nop
100022f4:	0040                	addi	s0,sp,4
100022f6:	0040                	addi	s0,sp,4
100022f8:	0061                	c.nop	24
100022fa:	00670063          	beq	a4,t1,100022fa <vnode_config_data+0xa>
100022fe:	00770067          	jr	7(a4)
10002302:	007f0077          	0x7f0077
10002306:	007f                	0x7f
10002308:	007f                	0x7f
1000230a:	007f                	0x7f
1000230c:	007f                	0x7f
1000230e:	007f                	0x7f
10002310:	007f                	0x7f
10002312:	007f                	0x7f
10002314:	007d                	c.nop	31
10002316:	007d                	c.nop	31
10002318:	007d                	c.nop	31
1000231a:	007d                	c.nop	31
1000231c:	007f                	0x7f
1000231e:	007f                	0x7f
10002320:	007f                	0x7f
10002322:	007f                	0x7f
10002324:	007f                	0x7f
10002326:	007f                	0x7f
10002328:	007f                	0x7f
1000232a:	007e                	c.slli	zero,0x1f
1000232c:	007f                	0x7f
1000232e:	007f                	0x7f
10002330:	007f                	0x7f
10002332:	007f                	0x7f
10002334:	007f                	0x7f
10002336:	007f                	0x7f
10002338:	007f                	0x7f
1000233a:	007f                	0x7f
1000233c:	007f                	0x7f
1000233e:	007f                	0x7f
10002340:	007f                	0x7f
10002342:	007f                	0x7f
10002344:	007f                	0x7f
10002346:	007f                	0x7f
10002348:	007f                	0x7f
1000234a:	007f                	0x7f
1000234c:	007f                	0x7f
1000234e:	007f                	0x7f
10002350:	007f                	0x7f
10002352:	007f                	0x7f
10002354:	007f                	0x7f
10002356:	007f                	0x7f
10002358:	007f                	0x7f
1000235a:	007f                	0x7f
1000235c:	007f                	0x7f
1000235e:	007f                	0x7f
10002360:	007f                	0x7f
10002362:	007f                	0x7f
10002364:	007e                	c.slli	zero,0x1f
10002366:	007f                	0x7f
10002368:	007f                	0x7f
1000236a:	007f                	0x7f
1000236c:	007f                	0x7f
1000236e:	007f                	0x7f
10002370:	007f                	0x7f
10002372:	007f                	0x7f
10002374:	007f                	0x7f
10002376:	007f                	0x7f
10002378:	007f                	0x7f
1000237a:	007f                	0x7f
1000237c:	007f                	0x7f
1000237e:	007f                	0x7f
10002380:	007f                	0x7f
10002382:	007f                	0x7f
10002384:	007f                	0x7f
10002386:	007f                	0x7f
10002388:	007f                	0x7f
1000238a:	007f                	0x7f
1000238c:	007f                	0x7f
1000238e:	007f                	0x7f
10002390:	007f                	0x7f
10002392:	007f                	0x7f
10002394:	007f                	0x7f
10002396:	007f                	0x7f
10002398:	007f                	0x7f
1000239a:	007f                	0x7f
1000239c:	007f                	0x7f
1000239e:	007f                	0x7f
100023a0:	007f                	0x7f
100023a2:	007f                	0x7f
100023a4:	007f                	0x7f
100023a6:	007f                	0x7f
100023a8:	007f                	0x7f
100023aa:	007f                	0x7f
100023ac:	007f                	0x7f
100023ae:	007f                	0x7f
100023b0:	007f                	0x7f
100023b2:	007f                	0x7f
100023b4:	007f                	0x7f
100023b6:	007f                	0x7f
100023b8:	007f                	0x7f
100023ba:	007f                	0x7f
100023bc:	007f                	0x7f
100023be:	007f                	0x7f
100023c0:	007f                	0x7f
100023c2:	007f                	0x7f
100023c4:	007f                	0x7f
100023c6:	007f                	0x7f
100023c8:	007f                	0x7f
100023ca:	007f                	0x7f
100023cc:	007f                	0x7f
100023ce:	007f                	0x7f
100023d0:	007f                	0x7f
100023d2:	007f                	0x7f
100023d4:	007f                	0x7f
100023d6:	007f                	0x7f
100023d8:	007f                	0x7f
100023da:	007f                	0x7f
100023dc:	007f                	0x7f
100023de:	007f                	0x7f
100023e0:	007f                	0x7f
100023e2:	007f                	0x7f
100023e4:	007f                	0x7f
100023e6:	007f                	0x7f
100023e8:	007f                	0x7f
100023ea:	007f                	0x7f
100023ec:	007f                	0x7f
100023ee:	007f                	0x7f
100023f0:	007f                	0x7f
100023f2:	007f                	0x7f
100023f4:	007f                	0x7f
100023f6:	007f                	0x7f
100023f8:	007f                	0x7f
100023fa:	007f                	0x7f
100023fc:	007f                	0x7f
100023fe:	007f                	0x7f
10002400:	007f                	0x7f
10002402:	007f                	0x7f
10002404:	007f                	0x7f
10002406:	007f                	0x7f
10002408:	007f                	0x7f
1000240a:	007f                	0x7f
1000240c:	007f                	0x7f
1000240e:	007f                	0x7f
10002410:	007f                	0x7f
10002412:	007f                	0x7f
10002414:	007f                	0x7f
10002416:	007f                	0x7f
10002418:	007f                	0x7f
1000241a:	007f                	0x7f
1000241c:	007f                	0x7f
1000241e:	007f                	0x7f
10002420:	007f                	0x7f
10002422:	007f                	0x7f
10002424:	007f                	0x7f
10002426:	007f                	0x7f
10002428:	007f                	0x7f
1000242a:	007f                	0x7f
1000242c:	007f                	0x7f
1000242e:	007f                	0x7f
10002430:	007f                	0x7f
10002432:	007f                	0x7f
10002434:	007f                	0x7f
10002436:	007f                	0x7f
10002438:	007f                	0x7f
1000243a:	007f                	0x7f
1000243c:	007f                	0x7f
1000243e:	007f                	0x7f
10002440:	007f                	0x7f
10002442:	007f                	0x7f
10002444:	007f                	0x7f
10002446:	007f                	0x7f
10002448:	007f                	0x7f
1000244a:	007f                	0x7f
1000244c:	007f                	0x7f
1000244e:	007f                	0x7f
10002450:	007f                	0x7f
10002452:	007f                	0x7f
10002454:	007f                	0x7f
10002456:	007f                	0x7f
10002458:	007f                	0x7f
1000245a:	007f                	0x7f
1000245c:	007f                	0x7f
1000245e:	007f                	0x7f
10002460:	007f                	0x7f
10002462:	007f                	0x7f
10002464:	007f                	0x7f
10002466:	007f                	0x7f
10002468:	007f                	0x7f
1000246a:	007f                	0x7f
1000246c:	007f                	0x7f
1000246e:	007f                	0x7f
10002470:	007f                	0x7f
10002472:	007f                	0x7f
10002474:	007f                	0x7f
10002476:	007f                	0x7f
10002478:	007f                	0x7f
1000247a:	007f                	0x7f
1000247c:	007f                	0x7f
1000247e:	007f                	0x7f
10002480:	007f                	0x7f
10002482:	007f                	0x7f
10002484:	007f                	0x7f
10002486:	007f                	0x7f
10002488:	007f                	0x7f
1000248a:	007f                	0x7f
1000248c:	007f                	0x7f
1000248e:	007f                	0x7f
10002490:	007f                	0x7f
10002492:	007f                	0x7f
10002494:	007f                	0x7f
10002496:	007f                	0x7f
10002498:	007f                	0x7f
1000249a:	007f                	0x7f
1000249c:	007f                	0x7f
1000249e:	007f                	0x7f
100024a0:	007f                	0x7f
100024a2:	007f                	0x7f
100024a4:	007f                	0x7f
100024a6:	007f                	0x7f
100024a8:	007f                	0x7f
100024aa:	007f                	0x7f
100024ac:	007f                	0x7f
100024ae:	007f                	0x7f
100024b0:	007f                	0x7f
100024b2:	007f                	0x7f
100024b4:	007f                	0x7f
100024b6:	007f                	0x7f
100024b8:	007f                	0x7f
100024ba:	007f                	0x7f
100024bc:	007f                	0x7f
100024be:	007f                	0x7f
100024c0:	007f                	0x7f
100024c2:	007f                	0x7f
100024c4:	007f                	0x7f
100024c6:	007f                	0x7f
100024c8:	007f                	0x7f
100024ca:	007f                	0x7f
100024cc:	007f                	0x7f
100024ce:	007f                	0x7f
100024d0:	007f                	0x7f
100024d2:	007f                	0x7f
100024d4:	007f                	0x7f
100024d6:	007f                	0x7f
100024d8:	007f                	0x7f
100024da:	007f                	0x7f
100024dc:	007f                	0x7f
100024de:	007f                	0x7f
100024e0:	007f                	0x7f
100024e2:	007f                	0x7f
100024e4:	007f                	0x7f
100024e6:	007f                	0x7f
100024e8:	007f                	0x7f
100024ea:	007f                	0x7f
100024ec:	007f                	0x7f
100024ee:	007f                	0x7f
100024f0:	007f                	0x7f
100024f2:	007f                	0x7f
100024f4:	007f                	0x7f
100024f6:	007f                	0x7f
100024f8:	007f                	0x7f
100024fa:	007f                	0x7f
100024fc:	007f                	0x7f
100024fe:	007f                	0x7f
10002500:	007f                	0x7f
10002502:	007f                	0x7f
10002504:	007f                	0x7f
10002506:	007f                	0x7f
10002508:	007f                	0x7f
1000250a:	007f                	0x7f
1000250c:	007f                	0x7f
1000250e:	007f                	0x7f
10002510:	007f                	0x7f
10002512:	007f                	0x7f
10002514:	007f                	0x7f
10002516:	007f                	0x7f
10002518:	007f                	0x7f
1000251a:	007f                	0x7f
1000251c:	007f                	0x7f
1000251e:	007f                	0x7f
10002520:	007f                	0x7f
10002522:	007f                	0x7f
10002524:	007f                	0x7f
10002526:	007f                	0x7f
10002528:	007f                	0x7f
1000252a:	007f                	0x7f
1000252c:	007f                	0x7f
1000252e:	007f                	0x7f
10002530:	007f                	0x7f
10002532:	007f                	0x7f
10002534:	007f                	0x7f
10002536:	007f                	0x7f
10002538:	007f                	0x7f
1000253a:	007f                	0x7f
1000253c:	007f                	0x7f
1000253e:	007f                	0x7f
10002540:	007f                	0x7f
10002542:	007f                	0x7f
10002544:	007f                	0x7f
10002546:	007f                	0x7f
10002548:	007f                	0x7f
1000254a:	007f                	0x7f

1000254c <hnode_config_data>:
1000254c:	0002                	c.slli	zero,0x0
1000254e:	0002                	c.slli	zero,0x0
10002550:	0002                	c.slli	zero,0x0
10002552:	0002                	c.slli	zero,0x0
10002554:	0002                	c.slli	zero,0x0
10002556:	00030003          	lb	zero,0(t1)
1000255a:	00030003          	lb	zero,0(t1)
1000255e:	00030003          	lb	zero,0(t1)
10002562:	00030003          	lb	zero,0(t1)
10002566:	00030003          	lb	zero,0(t1)
1000256a:	00030003          	lb	zero,0(t1)
1000256e:	00030003          	lb	zero,0(t1)
10002572:	00030003          	lb	zero,0(t1)
10002576:	00030003          	lb	zero,0(t1)
1000257a:	00030003          	lb	zero,0(t1)
1000257e:	00030003          	lb	zero,0(t1)
10002582:	00030003          	lb	zero,0(t1)
10002586:	00030003          	lb	zero,0(t1)
1000258a:	00030003          	lb	zero,0(t1)
1000258e:	00030003          	lb	zero,0(t1)
10002592:	00030003          	lb	zero,0(t1)
10002596:	00030003          	lb	zero,0(t1)
1000259a:	00030003          	lb	zero,0(t1)
1000259e:	00030003          	lb	zero,0(t1)
100025a2:	00030003          	lb	zero,0(t1)
100025a6:	00030003          	lb	zero,0(t1)
100025aa:	00030003          	lb	zero,0(t1)
100025ae:	00030003          	lb	zero,0(t1)
100025b2:	00030003          	lb	zero,0(t1)
100025b6:	00030003          	lb	zero,0(t1)
100025ba:	00030003          	lb	zero,0(t1)
100025be:	00030003          	lb	zero,0(t1)
100025c2:	00030003          	lb	zero,0(t1)
100025c6:	00030003          	lb	zero,0(t1)
100025ca:	00030003          	lb	zero,0(t1)
100025ce:	00030003          	lb	zero,0(t1)
100025d2:	00030003          	lb	zero,0(t1)
100025d6:	00030003          	lb	zero,0(t1)
100025da:	00030003          	lb	zero,0(t1)
100025de:	00030003          	lb	zero,0(t1)
100025e2:	00030003          	lb	zero,0(t1)
100025e6:	00030003          	lb	zero,0(t1)
100025ea:	00030003          	lb	zero,0(t1)
100025ee:	00030003          	lb	zero,0(t1)
100025f2:	00030003          	lb	zero,0(t1)
100025f6:	00030003          	lb	zero,0(t1)
100025fa:	00030003          	lb	zero,0(t1)
100025fe:	00030003          	lb	zero,0(t1)
10002602:	00030003          	lb	zero,0(t1)
10002606:	00030003          	lb	zero,0(t1)
1000260a:	00030003          	lb	zero,0(t1)
1000260e:	00030003          	lb	zero,0(t1)
10002612:	00030003          	lb	zero,0(t1)
10002616:	00030003          	lb	zero,0(t1)
1000261a:	00030003          	lb	zero,0(t1)
1000261e:	00030003          	lb	zero,0(t1)
10002622:	00030003          	lb	zero,0(t1)
10002626:	00030003          	lb	zero,0(t1)
1000262a:	00030003          	lb	zero,0(t1)
1000262e:	00030003          	lb	zero,0(t1)
10002632:	00030003          	lb	zero,0(t1)
10002636:	00030003          	lb	zero,0(t1)
1000263a:	00030003          	lb	zero,0(t1)
1000263e:	00030003          	lb	zero,0(t1)
10002642:	00030003          	lb	zero,0(t1)
10002646:	00030003          	lb	zero,0(t1)
1000264a:	00030003          	lb	zero,0(t1)
1000264e:	00030003          	lb	zero,0(t1)
10002652:	00030003          	lb	zero,0(t1)
10002656:	00030003          	lb	zero,0(t1)
1000265a:	00030003          	lb	zero,0(t1)
1000265e:	00030003          	lb	zero,0(t1)
10002662:	00030003          	lb	zero,0(t1)
10002666:	00030003          	lb	zero,0(t1)
1000266a:	00030003          	lb	zero,0(t1)
1000266e:	00030003          	lb	zero,0(t1)
10002672:	00030003          	lb	zero,0(t1)
10002676:	00030003          	lb	zero,0(t1)
1000267a:	00030003          	lb	zero,0(t1)
1000267e:	00030003          	lb	zero,0(t1)
10002682:	00030003          	lb	zero,0(t1)
10002686:	00030003          	lb	zero,0(t1)
1000268a:	00030003          	lb	zero,0(t1)
1000268e:	00030003          	lb	zero,0(t1)
10002692:	00030003          	lb	zero,0(t1)
10002696:	00030003          	lb	zero,0(t1)
1000269a:	00030003          	lb	zero,0(t1)
1000269e:	00030003          	lb	zero,0(t1)
100026a2:	00030003          	lb	zero,0(t1)
100026a6:	00030003          	lb	zero,0(t1)
100026aa:	00030003          	lb	zero,0(t1)
100026ae:	00030003          	lb	zero,0(t1)
100026b2:	00030003          	lb	zero,0(t1)
100026b6:	00030003          	lb	zero,0(t1)
100026ba:	00030003          	lb	zero,0(t1)
100026be:	00030003          	lb	zero,0(t1)
100026c2:	00030003          	lb	zero,0(t1)
100026c6:	00030003          	lb	zero,0(t1)
100026ca:	00030003          	lb	zero,0(t1)
100026ce:	00030003          	lb	zero,0(t1)
100026d2:	00030003          	lb	zero,0(t1)
100026d6:	00030003          	lb	zero,0(t1)
100026da:	00030003          	lb	zero,0(t1)
100026de:	00030003          	lb	zero,0(t1)
100026e2:	00030003          	lb	zero,0(t1)
100026e6:	00030003          	lb	zero,0(t1)
100026ea:	00030003          	lb	zero,0(t1)
100026ee:	00030003          	lb	zero,0(t1)
100026f2:	00030003          	lb	zero,0(t1)
100026f6:	00030003          	lb	zero,0(t1)
100026fa:	00030003          	lb	zero,0(t1)
100026fe:	00030003          	lb	zero,0(t1)
10002702:	00030003          	lb	zero,0(t1)
10002706:	00030003          	lb	zero,0(t1)
1000270a:	00030003          	lb	zero,0(t1)
1000270e:	00030003          	lb	zero,0(t1)
10002712:	00030003          	lb	zero,0(t1)
10002716:	00030003          	lb	zero,0(t1)
1000271a:	00030003          	lb	zero,0(t1)
1000271e:	00030003          	lb	zero,0(t1)
10002722:	00030003          	lb	zero,0(t1)
10002726:	00030003          	lb	zero,0(t1)
1000272a:	00030003          	lb	zero,0(t1)
1000272e:	00030003          	lb	zero,0(t1)
10002732:	00030003          	lb	zero,0(t1)
10002736:	00030003          	lb	zero,0(t1)
1000273a:	00030003          	lb	zero,0(t1)
1000273e:	00030003          	lb	zero,0(t1)
10002742:	00030003          	lb	zero,0(t1)
10002746:	00030003          	lb	zero,0(t1)
1000274a:	00030003          	lb	zero,0(t1)
1000274e:	00030003          	lb	zero,0(t1)
10002752:	00030003          	lb	zero,0(t1)
10002756:	00030003          	lb	zero,0(t1)
1000275a:	00030003          	lb	zero,0(t1)
1000275e:	00030003          	lb	zero,0(t1)
10002762:	00030003          	lb	zero,0(t1)
10002766:	00030003          	lb	zero,0(t1)
1000276a:	00030003          	lb	zero,0(t1)
1000276e:	00030003          	lb	zero,0(t1)
10002772:	00030003          	lb	zero,0(t1)
10002776:	00030003          	lb	zero,0(t1)
1000277a:	00030003          	lb	zero,0(t1)
1000277e:	00030003          	lb	zero,0(t1)
10002782:	00030003          	lb	zero,0(t1)
10002786:	00030003          	lb	zero,0(t1)
1000278a:	00030003          	lb	zero,0(t1)
1000278e:	00030003          	lb	zero,0(t1)
10002792:	00030003          	lb	zero,0(t1)
10002796:	00030003          	lb	zero,0(t1)
1000279a:	00030003          	lb	zero,0(t1)
1000279e:	00030003          	lb	zero,0(t1)
100027a2:	00030003          	lb	zero,0(t1)
100027a6:	00030003          	lb	zero,0(t1)
100027aa:	00030003          	lb	zero,0(t1)
100027ae:	00030003          	lb	zero,0(t1)
100027b2:	00030003          	lb	zero,0(t1)
100027b6:	00030003          	lb	zero,0(t1)
100027ba:	00030003          	lb	zero,0(t1)
100027be:	00030003          	lb	zero,0(t1)
100027c2:	00030003          	lb	zero,0(t1)
100027c6:	00030003          	lb	zero,0(t1)
100027ca:	00030003          	lb	zero,0(t1)
100027ce:	00030003          	lb	zero,0(t1)
100027d2:	00030003          	lb	zero,0(t1)
100027d6:	00030003          	lb	zero,0(t1)
100027da:	00030003          	lb	zero,0(t1)
100027de:	00030003          	lb	zero,0(t1)
100027e2:	00030003          	lb	zero,0(t1)
100027e6:	00030003          	lb	zero,0(t1)
100027ea:	00030003          	lb	zero,0(t1)
100027ee:	00030003          	lb	zero,0(t1)
100027f2:	00030003          	lb	zero,0(t1)
100027f6:	00030003          	lb	zero,0(t1)
100027fa:	00030003          	lb	zero,0(t1)
100027fe:	00030003          	lb	zero,0(t1)
10002802:	00030003          	lb	zero,0(t1)
10002806:	00030003          	lb	zero,0(t1)
1000280a:	00030003          	lb	zero,0(t1)
1000280e:	00030003          	lb	zero,0(t1)
10002812:	00030003          	lb	zero,0(t1)
10002816:	00030003          	lb	zero,0(t1)
1000281a:	00030003          	lb	zero,0(t1)
1000281e:	00030003          	lb	zero,0(t1)
10002822:	00030003          	lb	zero,0(t1)
10002826:	00030003          	lb	zero,0(t1)
1000282a:	00030003          	lb	zero,0(t1)
1000282e:	00030003          	lb	zero,0(t1)
10002832:	00030003          	lb	zero,0(t1)
10002836:	00030003          	lb	zero,0(t1)
1000283a:	00030003          	lb	zero,0(t1)
1000283e:	00030003          	lb	zero,0(t1)
10002842:	00030003          	lb	zero,0(t1)
10002846:	00030003          	lb	zero,0(t1)
1000284a:	00030003          	lb	zero,0(t1)
1000284e:	00030003          	lb	zero,0(t1)
10002852:	00030003          	lb	zero,0(t1)
10002856:	00030003          	lb	zero,0(t1)
1000285a:	00030003          	lb	zero,0(t1)
1000285e:	00030003          	lb	zero,0(t1)
10002862:	00030003          	lb	zero,0(t1)
10002866:	00030003          	lb	zero,0(t1)
1000286a:	00030003          	lb	zero,0(t1)
1000286e:	00030003          	lb	zero,0(t1)
10002872:	00030003          	lb	zero,0(t1)
10002876:	00030003          	lb	zero,0(t1)
1000287a:	00030003          	lb	zero,0(t1)
1000287e:	00030003          	lb	zero,0(t1)
10002882:	00030003          	lb	zero,0(t1)
10002886:	00030003          	lb	zero,0(t1)
1000288a:	00030003          	lb	zero,0(t1)
1000288e:	00030003          	lb	zero,0(t1)
10002892:	00030003          	lb	zero,0(t1)
10002896:	00030003          	lb	zero,0(t1)
1000289a:	00030003          	lb	zero,0(t1)
1000289e:	00030003          	lb	zero,0(t1)
100028a2:	00030003          	lb	zero,0(t1)
100028a6:	00030003          	lb	zero,0(t1)
100028aa:	00030003          	lb	zero,0(t1)
100028ae:	00030003          	lb	zero,0(t1)
100028b2:	00030003          	lb	zero,0(t1)
100028b6:	00030003          	lb	zero,0(t1)
100028ba:	00030003          	lb	zero,0(t1)
100028be:	00030003          	lb	zero,0(t1)
100028c2:	00030003          	lb	zero,0(t1)
100028c6:	00030003          	lb	zero,0(t1)
100028ca:	00030003          	lb	zero,0(t1)
100028ce:	00030003          	lb	zero,0(t1)
100028d2:	00030003          	lb	zero,0(t1)
100028d6:	00030003          	lb	zero,0(t1)
100028da:	00030003          	lb	zero,0(t1)
100028de:	00030003          	lb	zero,0(t1)
100028e2:	00030003          	lb	zero,0(t1)
100028e6:	00030003          	lb	zero,0(t1)
100028ea:	00030003          	lb	zero,0(t1)
100028ee:	00030003          	lb	zero,0(t1)
100028f2:	00030003          	lb	zero,0(t1)
100028f6:	00030003          	lb	zero,0(t1)
100028fa:	00030003          	lb	zero,0(t1)
100028fe:	00030003          	lb	zero,0(t1)
10002902:	00030003          	lb	zero,0(t1)
10002906:	00030003          	lb	zero,0(t1)
1000290a:	00030003          	lb	zero,0(t1)
1000290e:	00030003          	lb	zero,0(t1)
10002912:	00030003          	lb	zero,0(t1)
10002916:	00030003          	lb	zero,0(t1)
1000291a:	00030003          	lb	zero,0(t1)
1000291e:	00030003          	lb	zero,0(t1)
10002922:	00030003          	lb	zero,0(t1)
10002926:	00030003          	lb	zero,0(t1)
1000292a:	00030003          	lb	zero,0(t1)
1000292e:	00030003          	lb	zero,0(t1)
10002932:	00030003          	lb	zero,0(t1)
10002936:	00030003          	lb	zero,0(t1)
1000293a:	00030003          	lb	zero,0(t1)
1000293e:	00030003          	lb	zero,0(t1)
10002942:	00030003          	lb	zero,0(t1)
10002946:	00030003          	lb	zero,0(t1)
1000294a:	00030003          	lb	zero,0(t1)
1000294e:	00030003          	lb	zero,0(t1)
10002952:	00030003          	lb	zero,0(t1)
10002956:	00030003          	lb	zero,0(t1)
1000295a:	00030003          	lb	zero,0(t1)
1000295e:	00030003          	lb	zero,0(t1)
10002962:	00030003          	lb	zero,0(t1)
10002966:	00030003          	lb	zero,0(t1)
1000296a:	00030003          	lb	zero,0(t1)
1000296e:	00030003          	lb	zero,0(t1)
10002972:	00030003          	lb	zero,0(t1)
10002976:	00030003          	lb	zero,0(t1)
1000297a:	00030003          	lb	zero,0(t1)
1000297e:	00030003          	lb	zero,0(t1)
10002982:	00030003          	lb	zero,0(t1)
10002986:	00030003          	lb	zero,0(t1)
1000298a:	00030003          	lb	zero,0(t1)
1000298e:	00030003          	lb	zero,0(t1)
10002992:	00030003          	lb	zero,0(t1)
10002996:	00030003          	lb	zero,0(t1)
1000299a:	00030003          	lb	zero,0(t1)
1000299e:	00030003          	lb	zero,0(t1)
100029a2:	00030003          	lb	zero,0(t1)
100029a6:	00030003          	lb	zero,0(t1)
100029aa:	00030003          	lb	zero,0(t1)
100029ae:	00030003          	lb	zero,0(t1)
100029b2:	00030003          	lb	zero,0(t1)
100029b6:	00030003          	lb	zero,0(t1)
100029ba:	00030003          	lb	zero,0(t1)
100029be:	00030003          	lb	zero,0(t1)
100029c2:	00030003          	lb	zero,0(t1)
100029c6:	00030003          	lb	zero,0(t1)
100029ca:	00030003          	lb	zero,0(t1)
100029ce:	00030003          	lb	zero,0(t1)
100029d2:	00030003          	lb	zero,0(t1)
100029d6:	00030003          	lb	zero,0(t1)
100029da:	00030003          	lb	zero,0(t1)
100029de:	00030003          	lb	zero,0(t1)
100029e2:	00030003          	lb	zero,0(t1)
100029e6:	00030003          	lb	zero,0(t1)
100029ea:	00030003          	lb	zero,0(t1)
100029ee:	00030003          	lb	zero,0(t1)
100029f2:	00030003          	lb	zero,0(t1)
100029f6:	00030003          	lb	zero,0(t1)
100029fa:	00030003          	lb	zero,0(t1)
100029fe:	00030003          	lb	zero,0(t1)
10002a02:	00030003          	lb	zero,0(t1)
10002a06:	00030003          	lb	zero,0(t1)
10002a0a:	00030003          	lb	zero,0(t1)
10002a0e:	00030003          	lb	zero,0(t1)
10002a12:	00030003          	lb	zero,0(t1)
10002a16:	00030003          	lb	zero,0(t1)
10002a1a:	00030003          	lb	zero,0(t1)
10002a1e:	00030003          	lb	zero,0(t1)
10002a22:	00030003          	lb	zero,0(t1)
10002a26:	00030003          	lb	zero,0(t1)
10002a2a:	00030003          	lb	zero,0(t1)
10002a2e:	00030003          	lb	zero,0(t1)
10002a32:	00030003          	lb	zero,0(t1)
10002a36:	00030003          	lb	zero,0(t1)
10002a3a:	00030003          	lb	zero,0(t1)
10002a3e:	00030003          	lb	zero,0(t1)
10002a42:	00030003          	lb	zero,0(t1)
10002a46:	00030003          	lb	zero,0(t1)
10002a4a:	00030003          	lb	zero,0(t1)
10002a4e:	00030003          	lb	zero,0(t1)
10002a52:	00030003          	lb	zero,0(t1)
10002a56:	00030003          	lb	zero,0(t1)
10002a5a:	00030003          	lb	zero,0(t1)
10002a5e:	00030003          	lb	zero,0(t1)
10002a62:	00030003          	lb	zero,0(t1)
10002a66:	00030003          	lb	zero,0(t1)
10002a6a:	00030003          	lb	zero,0(t1)
10002a6e:	00030003          	lb	zero,0(t1)
10002a72:	00030003          	lb	zero,0(t1)
10002a76:	00030003          	lb	zero,0(t1)
10002a7a:	00030003          	lb	zero,0(t1)
10002a7e:	00030003          	lb	zero,0(t1)
10002a82:	00030003          	lb	zero,0(t1)
10002a86:	00030003          	lb	zero,0(t1)
10002a8a:	00030003          	lb	zero,0(t1)
10002a8e:	00030003          	lb	zero,0(t1)
10002a92:	00030003          	lb	zero,0(t1)
10002a96:	00030003          	lb	zero,0(t1)
10002a9a:	00030003          	lb	zero,0(t1)
10002a9e:	00030003          	lb	zero,0(t1)
10002aa2:	00030003          	lb	zero,0(t1)
10002aa6:	00030003          	lb	zero,0(t1)
10002aaa:	00030003          	lb	zero,0(t1)
10002aae:	00030003          	lb	zero,0(t1)
10002ab2:	00030003          	lb	zero,0(t1)
10002ab6:	00030003          	lb	zero,0(t1)
10002aba:	00030003          	lb	zero,0(t1)
10002abe:	00030003          	lb	zero,0(t1)
10002ac2:	00030003          	lb	zero,0(t1)
10002ac6:	00030003          	lb	zero,0(t1)
10002aca:	00030003          	lb	zero,0(t1)
10002ace:	00030003          	lb	zero,0(t1)
10002ad2:	00030003          	lb	zero,0(t1)
10002ad6:	00030003          	lb	zero,0(t1)
10002ada:	00030003          	lb	zero,0(t1)
10002ade:	00030003          	lb	zero,0(t1)
10002ae2:	00030003          	lb	zero,0(t1)
10002ae6:	00030003          	lb	zero,0(t1)
10002aea:	00030003          	lb	zero,0(t1)
10002aee:	00030003          	lb	zero,0(t1)
10002af2:	00030003          	lb	zero,0(t1)
10002af6:	00030003          	lb	zero,0(t1)
10002afa:	00030003          	lb	zero,0(t1)
10002afe:	00030003          	lb	zero,0(t1)
10002b02:	00030003          	lb	zero,0(t1)
10002b06:	00030003          	lb	zero,0(t1)
10002b0a:	00030003          	lb	zero,0(t1)
10002b0e:	00030003          	lb	zero,0(t1)
10002b12:	00030003          	lb	zero,0(t1)
10002b16:	00030003          	lb	zero,0(t1)
10002b1a:	00030003          	lb	zero,0(t1)
10002b1e:	00030003          	lb	zero,0(t1)
10002b22:	69200003          	lb	zero,1682(zero) # 692 <_ebss+0x292>
10002b26:	00002073          	csrr	zero,ustatus
10002b2a:	0000                	unimp
10002b2c:	6f20                	flw	fs0,88(a4)
10002b2e:	206e                	fld	ft0,216(sp)
10002b30:	0000                	unimp
10002b32:	0000                	unimp
10002b34:	6f20                	flw	fs0,88(a4)
10002b36:	2066                	fld	ft0,88(sp)
10002b38:	0000                	unimp
10002b3a:	0000                	unimp
10002b3c:	2820                	fld	fs0,80(s0)
10002b3e:	616c                	flw	fa1,68(a0)
10002b40:	00297473          	csrrci	s0,frm,18
10002b44:	3130                	fld	fa2,96(a0)
10002b46:	3332                	fld	ft6,296(sp)
10002b48:	3534                	fld	fa3,104(a0)
10002b4a:	3736                	fld	fa4,360(sp)
10002b4c:	3938                	fld	fa4,112(a0)
10002b4e:	6261                	lui	tp,0x18
10002b50:	66656463          	bltu	a0,t1,100031b8 <_erodata+0x5b8>
10002b54:	0000                	unimp
10002b56:	0000                	unimp
10002b58:	7361                	lui	t1,0xffff8
10002b5a:	74726573          	csrrsi	a0,0x747,4
10002b5e:	0000                	unimp
10002b60:	6e45                	lui	t3,0x11
10002b62:	2164                	fld	fs1,192(a0)
10002b64:	000a                	c.slli	zero,0x2
10002b66:	0000                	unimp
10002b68:	6156                	flw	ft2,84(sp)
10002b6a:	736c                	flw	fa1,100(a4)
10002b6c:	203a                	fld	ft0,392(sp)
10002b6e:	0000                	unimp
10002b70:	7254                	flw	fa3,36(a2)
10002b72:	0a79                	addi	s4,s4,30
10002b74:	0000                	unimp
10002b76:	0000                	unimp
10002b78:	6552                	flw	fa0,20(sp)
10002b7a:	69746573          	csrrsi	a0,0x697,8
10002b7e:	676e                	flw	fa4,216(sp)
10002b80:	2e2e                	fld	ft8,200(sp)
10002b82:	0a2e                	slli	s4,s4,0xb
10002b84:	0000                	unimp
10002b86:	0000                	unimp
10002b88:	6f4c                	flw	fa1,28(a4)
10002b8a:	6461                	lui	s0,0x18
10002b8c:	6e69                	lui	t3,0x1a
10002b8e:	6f632067          	0x6f632067
10002b92:	666e                	flw	fa2,216(sp)
10002b94:	6769                	lui	a4,0x1a
10002b96:	2e2e                	fld	ft8,200(sp)
10002b98:	0a2e                	slli	s4,s4,0xb
10002b9a:	0000                	unimp
10002b9c:	6f44                	flw	fs1,28(a4)
10002b9e:	656e                	flw	fa0,216(sp)
10002ba0:	000a                	c.slli	zero,0x2
10002ba2:	0000                	unimp
10002ba4:	6552                	flw	fa0,20(sp)
10002ba6:	656c                	flw	fa1,76(a0)
10002ba8:	7361                	lui	t1,0xffff8
10002baa:	6e69                	lui	t3,0x1a
10002bac:	50462067          	0x50462067
10002bb0:	72204147          	fmsub.d	ft2,ft0,ft2,fa4,rmm
10002bb4:	7365                	lui	t1,0xffff9
10002bb6:	7465                	lui	s0,0xffff9
10002bb8:	2e2e                	fld	ft8,200(sp)
10002bba:	0a2e                	slli	s4,s4,0xb
10002bbc:	0000                	unimp
10002bbe:	0000                	unimp
10002bc0:	6552                	flw	fa0,20(sp)
10002bc2:	69746573          	csrrsi	a0,0x697,8
10002bc6:	676e                	flw	fa4,216(sp)
10002bc8:	4620                	lw	s0,72(a2)
10002bca:	4750                	lw	a2,12(a4)
10002bcc:	2041                	jal	10002c4c <_erodata+0x4c>
10002bce:	6c204257          	0x6c204257
10002bd2:	6369676f          	jal	a4,10099208 <_erodata+0x96608>
10002bd6:	2e2e                	fld	ft8,200(sp)
10002bd8:	0a2e                	slli	s4,s4,0xb
	...

Disassembly of section .data:

00000000 <lblock_config_words>:
   0:	000008f7          	0x8f7

00000004 <vnode_config_words>:
   4:	012e                	slli	sp,sp,0xb
	...

00000008 <hnode_config_words>:
   8:	02ec                	addi	a1,sp,332
	...

Disassembly of section .bss:

00000100 <flag>:
 100:	0000                	unimp
	...

00000104 <vnode_config_data2>:
	...

Disassembly of section .comment:

00000000 <.comment>:
   0:	3a434347          	fmsub.d	ft6,ft6,ft4,ft7,rmm
   4:	2820                	fld	fs0,80(s0)
   6:	29554e47          	fmsub.s	ft8,fa0,fs5,ft5,rmm
   a:	3720                	fld	fs0,104(a4)
   c:	322e                	fld	ft4,232(sp)
   e:	302e                	fld	ft0,232(sp)
	...
